
rocket:     file format elf64-x86-64


Disassembly of section .init:

0000000000403a30 <_init>:
  403a30:	48 83 ec 08          	sub    $0x8,%rsp
  403a34:	e8 83 0d 00 00       	callq  4047bc <call_gmon_start>
  403a39:	48 83 c4 08          	add    $0x8,%rsp
  403a3d:	c3                   	retq   

Disassembly of section .plt:

0000000000403a40 <_ZNSs6appendEPKcm@plt-0x10>:
  403a40:	ff 35 aa 05 21 00    	pushq  0x2105aa(%rip)        # 613ff0 <_GLOBAL_OFFSET_TABLE_+0x8>
  403a46:	ff 25 ac 05 21 00    	jmpq   *0x2105ac(%rip)        # 613ff8 <_GLOBAL_OFFSET_TABLE_+0x10>
  403a4c:	0f 1f 40 00          	nopl   0x0(%rax)

0000000000403a50 <_ZNSs6appendEPKcm@plt>:
  403a50:	ff 25 aa 05 21 00    	jmpq   *0x2105aa(%rip)        # 614000 <_GLOBAL_OFFSET_TABLE_+0x18>
  403a56:	68 00 00 00 00       	pushq  $0x0
  403a5b:	e9 e0 ff ff ff       	jmpq   403a40 <_init+0x10>

0000000000403a60 <_ZNKSs16find_last_not_ofEPKcmm@plt>:
  403a60:	ff 25 a2 05 21 00    	jmpq   *0x2105a2(%rip)        # 614008 <_GLOBAL_OFFSET_TABLE_+0x20>
  403a66:	68 01 00 00 00       	pushq  $0x1
  403a6b:	e9 d0 ff ff ff       	jmpq   403a40 <_init+0x10>

0000000000403a70 <_ZSt7getlineIcSt11char_traitsIcESaIcEERSt13basic_istreamIT_T0_ES7_RSbIS4_S5_T1_ES4_@plt>:
  403a70:	ff 25 9a 05 21 00    	jmpq   *0x21059a(%rip)        # 614010 <_GLOBAL_OFFSET_TABLE_+0x28>
  403a76:	68 02 00 00 00       	pushq  $0x2
  403a7b:	e9 c0 ff ff ff       	jmpq   403a40 <_init+0x10>

0000000000403a80 <dup2@plt>:
  403a80:	ff 25 92 05 21 00    	jmpq   *0x210592(%rip)        # 614018 <_GLOBAL_OFFSET_TABLE_+0x30>
  403a86:	68 03 00 00 00       	pushq  $0x3
  403a8b:	e9 b0 ff ff ff       	jmpq   403a40 <_init+0x10>

0000000000403a90 <pthread_cond_destroy@plt>:
  403a90:	ff 25 8a 05 21 00    	jmpq   *0x21058a(%rip)        # 614020 <_GLOBAL_OFFSET_TABLE_+0x38>
  403a96:	68 04 00 00 00       	pushq  $0x4
  403a9b:	e9 a0 ff ff ff       	jmpq   403a40 <_init+0x10>

0000000000403aa0 <_ZNSolsEi@plt>:
  403aa0:	ff 25 82 05 21 00    	jmpq   *0x210582(%rip)        # 614028 <_GLOBAL_OFFSET_TABLE_+0x40>
  403aa6:	68 05 00 00 00       	pushq  $0x5
  403aab:	e9 90 ff ff ff       	jmpq   403a40 <_init+0x10>

0000000000403ab0 <_ZNSi10_M_extractImEERSiRT_@plt>:
  403ab0:	ff 25 7a 05 21 00    	jmpq   *0x21057a(%rip)        # 614030 <_GLOBAL_OFFSET_TABLE_+0x48>
  403ab6:	68 06 00 00 00       	pushq  $0x6
  403abb:	e9 80 ff ff ff       	jmpq   403a40 <_init+0x10>

0000000000403ac0 <memset@plt>:
  403ac0:	ff 25 72 05 21 00    	jmpq   *0x210572(%rip)        # 614038 <_GLOBAL_OFFSET_TABLE_+0x50>
  403ac6:	68 07 00 00 00       	pushq  $0x7
  403acb:	e9 70 ff ff ff       	jmpq   403a40 <_init+0x10>

0000000000403ad0 <setsid@plt>:
  403ad0:	ff 25 6a 05 21 00    	jmpq   *0x21056a(%rip)        # 614040 <_GLOBAL_OFFSET_TABLE_+0x58>
  403ad6:	68 08 00 00 00       	pushq  $0x8
  403adb:	e9 60 ff ff ff       	jmpq   403a40 <_init+0x10>

0000000000403ae0 <_ZSt16__throw_bad_castv@plt>:
  403ae0:	ff 25 62 05 21 00    	jmpq   *0x210562(%rip)        # 614048 <_GLOBAL_OFFSET_TABLE_+0x60>
  403ae6:	68 09 00 00 00       	pushq  $0x9
  403aeb:	e9 50 ff ff ff       	jmpq   403a40 <_init+0x10>

0000000000403af0 <_ZSt24__throw_out_of_range_fmtPKcz@plt>:
  403af0:	ff 25 5a 05 21 00    	jmpq   *0x21055a(%rip)        # 614050 <_GLOBAL_OFFSET_TABLE_+0x68>
  403af6:	68 0a 00 00 00       	pushq  $0xa
  403afb:	e9 40 ff ff ff       	jmpq   403a40 <_init+0x10>

0000000000403b00 <close@plt>:
  403b00:	ff 25 52 05 21 00    	jmpq   *0x210552(%rip)        # 614058 <_GLOBAL_OFFSET_TABLE_+0x70>
  403b06:	68 0b 00 00 00       	pushq  $0xb
  403b0b:	e9 30 ff ff ff       	jmpq   403a40 <_init+0x10>

0000000000403b10 <_ZNSs9_M_mutateEmmm@plt>:
  403b10:	ff 25 4a 05 21 00    	jmpq   *0x21054a(%rip)        # 614060 <_GLOBAL_OFFSET_TABLE_+0x78>
  403b16:	68 0c 00 00 00       	pushq  $0xc
  403b1b:	e9 20 ff ff ff       	jmpq   403a40 <_init+0x10>

0000000000403b20 <_ZNSt8ios_baseC2Ev@plt>:
  403b20:	ff 25 42 05 21 00    	jmpq   *0x210542(%rip)        # 614068 <_GLOBAL_OFFSET_TABLE_+0x80>
  403b26:	68 0d 00 00 00       	pushq  $0xd
  403b2b:	e9 10 ff ff ff       	jmpq   403a40 <_init+0x10>

0000000000403b30 <_ZNSi10_M_extractIjEERSiRT_@plt>:
  403b30:	ff 25 3a 05 21 00    	jmpq   *0x21053a(%rip)        # 614070 <_GLOBAL_OFFSET_TABLE_+0x88>
  403b36:	68 0e 00 00 00       	pushq  $0xe
  403b3b:	e9 00 ff ff ff       	jmpq   403a40 <_init+0x10>

0000000000403b40 <__cxa_guard_acquire@plt>:
  403b40:	ff 25 32 05 21 00    	jmpq   *0x210532(%rip)        # 614078 <_GLOBAL_OFFSET_TABLE_+0x90>
  403b46:	68 0f 00 00 00       	pushq  $0xf
  403b4b:	e9 f0 fe ff ff       	jmpq   403a40 <_init+0x10>

0000000000403b50 <_ZNSsC1EPKcmRKSaIcE@plt>:
  403b50:	ff 25 2a 05 21 00    	jmpq   *0x21052a(%rip)        # 614080 <_GLOBAL_OFFSET_TABLE_+0x98>
  403b56:	68 10 00 00 00       	pushq  $0x10
  403b5b:	e9 e0 fe ff ff       	jmpq   403a40 <_init+0x10>

0000000000403b60 <__fprintf_chk@plt>:
  403b60:	ff 25 22 05 21 00    	jmpq   *0x210522(%rip)        # 614088 <_GLOBAL_OFFSET_TABLE_+0xa0>
  403b66:	68 11 00 00 00       	pushq  $0x11
  403b6b:	e9 d0 fe ff ff       	jmpq   403a40 <_init+0x10>

0000000000403b70 <epoll_create@plt>:
  403b70:	ff 25 1a 05 21 00    	jmpq   *0x21051a(%rip)        # 614090 <_GLOBAL_OFFSET_TABLE_+0xa8>
  403b76:	68 12 00 00 00       	pushq  $0x12
  403b7b:	e9 c0 fe ff ff       	jmpq   403a40 <_init+0x10>

0000000000403b80 <gethostbyname@plt>:
  403b80:	ff 25 12 05 21 00    	jmpq   *0x210512(%rip)        # 614098 <_GLOBAL_OFFSET_TABLE_+0xb0>
  403b86:	68 13 00 00 00       	pushq  $0x13
  403b8b:	e9 b0 fe ff ff       	jmpq   403a40 <_init+0x10>

0000000000403b90 <_Znam@plt>:
  403b90:	ff 25 0a 05 21 00    	jmpq   *0x21050a(%rip)        # 6140a0 <_GLOBAL_OFFSET_TABLE_+0xb8>
  403b96:	68 14 00 00 00       	pushq  $0x14
  403b9b:	e9 a0 fe ff ff       	jmpq   403a40 <_init+0x10>

0000000000403ba0 <pthread_cond_signal@plt>:
  403ba0:	ff 25 02 05 21 00    	jmpq   *0x210502(%rip)        # 6140a8 <_GLOBAL_OFFSET_TABLE_+0xc0>
  403ba6:	68 15 00 00 00       	pushq  $0x15
  403bab:	e9 90 fe ff ff       	jmpq   403a40 <_init+0x10>

0000000000403bb0 <_ZdlPv@plt>:
  403bb0:	ff 25 fa 04 21 00    	jmpq   *0x2104fa(%rip)        # 6140b0 <_GLOBAL_OFFSET_TABLE_+0xc8>
  403bb6:	68 16 00 00 00       	pushq  $0x16
  403bbb:	e9 80 fe ff ff       	jmpq   403a40 <_init+0x10>

0000000000403bc0 <select@plt>:
  403bc0:	ff 25 f2 04 21 00    	jmpq   *0x2104f2(%rip)        # 6140b8 <_GLOBAL_OFFSET_TABLE_+0xd0>
  403bc6:	68 17 00 00 00       	pushq  $0x17
  403bcb:	e9 70 fe ff ff       	jmpq   403a40 <_init+0x10>

0000000000403bd0 <exit@plt>:
  403bd0:	ff 25 ea 04 21 00    	jmpq   *0x2104ea(%rip)        # 6140c0 <_GLOBAL_OFFSET_TABLE_+0xd8>
  403bd6:	68 18 00 00 00       	pushq  $0x18
  403bdb:	e9 60 fe ff ff       	jmpq   403a40 <_init+0x10>

0000000000403be0 <__assert_fail@plt>:
  403be0:	ff 25 e2 04 21 00    	jmpq   *0x2104e2(%rip)        # 6140c8 <_GLOBAL_OFFSET_TABLE_+0xe0>
  403be6:	68 19 00 00 00       	pushq  $0x19
  403beb:	e9 50 fe ff ff       	jmpq   403a40 <_init+0x10>

0000000000403bf0 <_ZNKSt5ctypeIcE13_M_widen_initEv@plt>:
  403bf0:	ff 25 da 04 21 00    	jmpq   *0x2104da(%rip)        # 6140d0 <_GLOBAL_OFFSET_TABLE_+0xe8>
  403bf6:	68 1a 00 00 00       	pushq  $0x1a
  403bfb:	e9 40 fe ff ff       	jmpq   403a40 <_init+0x10>

0000000000403c00 <__printf_chk@plt>:
  403c00:	ff 25 d2 04 21 00    	jmpq   *0x2104d2(%rip)        # 6140d8 <_GLOBAL_OFFSET_TABLE_+0xf0>
  403c06:	68 1b 00 00 00       	pushq  $0x1b
  403c0b:	e9 30 fe ff ff       	jmpq   403a40 <_init+0x10>

0000000000403c10 <strcasecmp@plt>:
  403c10:	ff 25 ca 04 21 00    	jmpq   *0x2104ca(%rip)        # 6140e0 <_GLOBAL_OFFSET_TABLE_+0xf8>
  403c16:	68 1c 00 00 00       	pushq  $0x1c
  403c1b:	e9 20 fe ff ff       	jmpq   403a40 <_init+0x10>

0000000000403c20 <__cxa_rethrow@plt>:
  403c20:	ff 25 c2 04 21 00    	jmpq   *0x2104c2(%rip)        # 6140e8 <_GLOBAL_OFFSET_TABLE_+0x100>
  403c26:	68 1d 00 00 00       	pushq  $0x1d
  403c2b:	e9 10 fe ff ff       	jmpq   403a40 <_init+0x10>

0000000000403c30 <_ZNSt8ios_base4InitC1Ev@plt>:
  403c30:	ff 25 ba 04 21 00    	jmpq   *0x2104ba(%rip)        # 6140f0 <_GLOBAL_OFFSET_TABLE_+0x108>
  403c36:	68 1e 00 00 00       	pushq  $0x1e
  403c3b:	e9 00 fe ff ff       	jmpq   403a40 <_init+0x10>

0000000000403c40 <read@plt>:
  403c40:	ff 25 b2 04 21 00    	jmpq   *0x2104b2(%rip)        # 6140f8 <_GLOBAL_OFFSET_TABLE_+0x110>
  403c46:	68 1f 00 00 00       	pushq  $0x1f
  403c4b:	e9 f0 fd ff ff       	jmpq   403a40 <_init+0x10>

0000000000403c50 <malloc@plt>:
  403c50:	ff 25 aa 04 21 00    	jmpq   *0x2104aa(%rip)        # 614100 <_GLOBAL_OFFSET_TABLE_+0x118>
  403c56:	68 20 00 00 00       	pushq  $0x20
  403c5b:	e9 e0 fd ff ff       	jmpq   403a40 <_init+0x10>

0000000000403c60 <fopen@plt>:
  403c60:	ff 25 a2 04 21 00    	jmpq   *0x2104a2(%rip)        # 614108 <_GLOBAL_OFFSET_TABLE_+0x120>
  403c66:	68 21 00 00 00       	pushq  $0x21
  403c6b:	e9 d0 fd ff ff       	jmpq   403a40 <_init+0x10>

0000000000403c70 <__libc_start_main@plt>:
  403c70:	ff 25 9a 04 21 00    	jmpq   *0x21049a(%rip)        # 614110 <_GLOBAL_OFFSET_TABLE_+0x128>
  403c76:	68 22 00 00 00       	pushq  $0x22
  403c7b:	e9 c0 fd ff ff       	jmpq   403a40 <_init+0x10>

0000000000403c80 <_ZSt18_Rb_tree_decrementPSt18_Rb_tree_node_base@plt>:
  403c80:	ff 25 92 04 21 00    	jmpq   *0x210492(%rip)        # 614118 <_GLOBAL_OFFSET_TABLE_+0x130>
  403c86:	68 23 00 00 00       	pushq  $0x23
  403c8b:	e9 b0 fd ff ff       	jmpq   403a40 <_init+0x10>

0000000000403c90 <_exit@plt>:
  403c90:	ff 25 8a 04 21 00    	jmpq   *0x21048a(%rip)        # 614120 <_GLOBAL_OFFSET_TABLE_+0x138>
  403c96:	68 24 00 00 00       	pushq  $0x24
  403c9b:	e9 a0 fd ff ff       	jmpq   403a40 <_init+0x10>

0000000000403ca0 <pthread_cond_timedwait@plt>:
  403ca0:	ff 25 82 04 21 00    	jmpq   *0x210482(%rip)        # 614128 <_GLOBAL_OFFSET_TABLE_+0x140>
  403ca6:	68 25 00 00 00       	pushq  $0x25
  403cab:	e9 90 fd ff ff       	jmpq   403a40 <_init+0x10>

0000000000403cb0 <__memcpy_chk@plt>:
  403cb0:	ff 25 7a 04 21 00    	jmpq   *0x21047a(%rip)        # 614130 <_GLOBAL_OFFSET_TABLE_+0x148>
  403cb6:	68 26 00 00 00       	pushq  $0x26
  403cbb:	e9 80 fd ff ff       	jmpq   403a40 <_init+0x10>

0000000000403cc0 <_ZNSsC1ERKSs@plt>:
  403cc0:	ff 25 72 04 21 00    	jmpq   *0x210472(%rip)        # 614138 <_GLOBAL_OFFSET_TABLE_+0x150>
  403cc6:	68 27 00 00 00       	pushq  $0x27
  403ccb:	e9 70 fd ff ff       	jmpq   403a40 <_init+0x10>

0000000000403cd0 <__cxa_atexit@plt>:
  403cd0:	ff 25 6a 04 21 00    	jmpq   *0x21046a(%rip)        # 614140 <_GLOBAL_OFFSET_TABLE_+0x158>
  403cd6:	68 28 00 00 00       	pushq  $0x28
  403cdb:	e9 60 fd ff ff       	jmpq   403a40 <_init+0x10>

0000000000403ce0 <_ZNSt13basic_filebufIcSt11char_traitsIcEE4openEPKcSt13_Ios_Openmode@plt>:
  403ce0:	ff 25 62 04 21 00    	jmpq   *0x210462(%rip)        # 614148 <_GLOBAL_OFFSET_TABLE_+0x160>
  403ce6:	68 29 00 00 00       	pushq  $0x29
  403ceb:	e9 50 fd ff ff       	jmpq   403a40 <_init+0x10>

0000000000403cf0 <setsockopt@plt>:
  403cf0:	ff 25 5a 04 21 00    	jmpq   *0x21045a(%rip)        # 614150 <_GLOBAL_OFFSET_TABLE_+0x168>
  403cf6:	68 2a 00 00 00       	pushq  $0x2a
  403cfb:	e9 40 fd ff ff       	jmpq   403a40 <_init+0x10>

0000000000403d00 <getpid@plt>:
  403d00:	ff 25 52 04 21 00    	jmpq   *0x210452(%rip)        # 614158 <_GLOBAL_OFFSET_TABLE_+0x170>
  403d06:	68 2b 00 00 00       	pushq  $0x2b
  403d0b:	e9 30 fd ff ff       	jmpq   403a40 <_init+0x10>

0000000000403d10 <pthread_mutex_init@plt>:
  403d10:	ff 25 4a 04 21 00    	jmpq   *0x21044a(%rip)        # 614160 <_GLOBAL_OFFSET_TABLE_+0x178>
  403d16:	68 2c 00 00 00       	pushq  $0x2c
  403d1b:	e9 20 fd ff ff       	jmpq   403a40 <_init+0x10>

0000000000403d20 <__vsnprintf_chk@plt>:
  403d20:	ff 25 42 04 21 00    	jmpq   *0x210442(%rip)        # 614168 <_GLOBAL_OFFSET_TABLE_+0x180>
  403d26:	68 2d 00 00 00       	pushq  $0x2d
  403d2b:	e9 10 fd ff ff       	jmpq   403a40 <_init+0x10>

0000000000403d30 <_ZStlsISt11char_traitsIcEERSt13basic_ostreamIcT_ES5_PKc@plt>:
  403d30:	ff 25 3a 04 21 00    	jmpq   *0x21043a(%rip)        # 614170 <_GLOBAL_OFFSET_TABLE_+0x188>
  403d36:	68 2e 00 00 00       	pushq  $0x2e
  403d3b:	e9 00 fd ff ff       	jmpq   403a40 <_init+0x10>

0000000000403d40 <free@plt>:
  403d40:	ff 25 32 04 21 00    	jmpq   *0x210432(%rip)        # 614178 <_GLOBAL_OFFSET_TABLE_+0x190>
  403d46:	68 2f 00 00 00       	pushq  $0x2f
  403d4b:	e9 f0 fc ff ff       	jmpq   403a40 <_init+0x10>

0000000000403d50 <_ZNKSs17find_first_not_ofEPKcmm@plt>:
  403d50:	ff 25 2a 04 21 00    	jmpq   *0x21042a(%rip)        # 614180 <_GLOBAL_OFFSET_TABLE_+0x198>
  403d56:	68 30 00 00 00       	pushq  $0x30
  403d5b:	e9 e0 fc ff ff       	jmpq   403a40 <_init+0x10>

0000000000403d60 <strlen@plt>:
  403d60:	ff 25 22 04 21 00    	jmpq   *0x210422(%rip)        # 614188 <_GLOBAL_OFFSET_TABLE_+0x1a0>
  403d66:	68 31 00 00 00       	pushq  $0x31
  403d6b:	e9 d0 fc ff ff       	jmpq   403a40 <_init+0x10>

0000000000403d70 <_ZNSs4_Rep10_M_destroyERKSaIcE@plt>:
  403d70:	ff 25 1a 04 21 00    	jmpq   *0x21041a(%rip)        # 614190 <_GLOBAL_OFFSET_TABLE_+0x1a8>
  403d76:	68 32 00 00 00       	pushq  $0x32
  403d7b:	e9 c0 fc ff ff       	jmpq   403a40 <_init+0x10>

0000000000403d80 <pthread_create@plt>:
  403d80:	ff 25 12 04 21 00    	jmpq   *0x210412(%rip)        # 614198 <_GLOBAL_OFFSET_TABLE_+0x1b0>
  403d86:	68 33 00 00 00       	pushq  $0x33
  403d8b:	e9 b0 fc ff ff       	jmpq   403a40 <_init+0x10>

0000000000403d90 <pthread_cond_init@plt>:
  403d90:	ff 25 0a 04 21 00    	jmpq   *0x21040a(%rip)        # 6141a0 <_GLOBAL_OFFSET_TABLE_+0x1b8>
  403d96:	68 34 00 00 00       	pushq  $0x34
  403d9b:	e9 a0 fc ff ff       	jmpq   403a40 <_init+0x10>

0000000000403da0 <listen@plt>:
  403da0:	ff 25 02 04 21 00    	jmpq   *0x210402(%rip)        # 6141a8 <_GLOBAL_OFFSET_TABLE_+0x1c0>
  403da6:	68 35 00 00 00       	pushq  $0x35
  403dab:	e9 90 fc ff ff       	jmpq   403a40 <_init+0x10>

0000000000403db0 <_ZNKSs13find_first_ofEPKcmm@plt>:
  403db0:	ff 25 fa 03 21 00    	jmpq   *0x2103fa(%rip)        # 6141b0 <_GLOBAL_OFFSET_TABLE_+0x1c8>
  403db6:	68 36 00 00 00       	pushq  $0x36
  403dbb:	e9 80 fc ff ff       	jmpq   403a40 <_init+0x10>

0000000000403dc0 <__cxa_guard_release@plt>:
  403dc0:	ff 25 f2 03 21 00    	jmpq   *0x2103f2(%rip)        # 6141b8 <_GLOBAL_OFFSET_TABLE_+0x1d0>
  403dc6:	68 37 00 00 00       	pushq  $0x37
  403dcb:	e9 70 fc ff ff       	jmpq   403a40 <_init+0x10>

0000000000403dd0 <dlerror@plt>:
  403dd0:	ff 25 ea 03 21 00    	jmpq   *0x2103ea(%rip)        # 6141c0 <_GLOBAL_OFFSET_TABLE_+0x1d8>
  403dd6:	68 38 00 00 00       	pushq  $0x38
  403ddb:	e9 60 fc ff ff       	jmpq   403a40 <_init+0x10>

0000000000403de0 <strrchr@plt>:
  403de0:	ff 25 e2 03 21 00    	jmpq   *0x2103e2(%rip)        # 6141c8 <_GLOBAL_OFFSET_TABLE_+0x1e0>
  403de6:	68 39 00 00 00       	pushq  $0x39
  403deb:	e9 50 fc ff ff       	jmpq   403a40 <_init+0x10>

0000000000403df0 <dlclose@plt>:
  403df0:	ff 25 da 03 21 00    	jmpq   *0x2103da(%rip)        # 6141d0 <_GLOBAL_OFFSET_TABLE_+0x1e8>
  403df6:	68 3a 00 00 00       	pushq  $0x3a
  403dfb:	e9 40 fc ff ff       	jmpq   403a40 <_init+0x10>

0000000000403e00 <_ZNKSs4findEcm@plt>:
  403e00:	ff 25 d2 03 21 00    	jmpq   *0x2103d2(%rip)        # 6141d8 <_GLOBAL_OFFSET_TABLE_+0x1f0>
  403e06:	68 3b 00 00 00       	pushq  $0x3b
  403e0b:	e9 30 fc ff ff       	jmpq   403a40 <_init+0x10>

0000000000403e10 <_ZNKSs7compareEPKc@plt>:
  403e10:	ff 25 ca 03 21 00    	jmpq   *0x2103ca(%rip)        # 6141e0 <_GLOBAL_OFFSET_TABLE_+0x1f8>
  403e16:	68 3c 00 00 00       	pushq  $0x3c
  403e1b:	e9 20 fc ff ff       	jmpq   403a40 <_init+0x10>

0000000000403e20 <_ZNSsC1EPKcRKSaIcE@plt>:
  403e20:	ff 25 c2 03 21 00    	jmpq   *0x2103c2(%rip)        # 6141e8 <_GLOBAL_OFFSET_TABLE_+0x200>
  403e26:	68 3d 00 00 00       	pushq  $0x3d
  403e2b:	e9 10 fc ff ff       	jmpq   403a40 <_init+0x10>

0000000000403e30 <usleep@plt>:
  403e30:	ff 25 ba 03 21 00    	jmpq   *0x2103ba(%rip)        # 6141f0 <_GLOBAL_OFFSET_TABLE_+0x208>
  403e36:	68 3e 00 00 00       	pushq  $0x3e
  403e3b:	e9 00 fc ff ff       	jmpq   403a40 <_init+0x10>

0000000000403e40 <strerror@plt>:
  403e40:	ff 25 b2 03 21 00    	jmpq   *0x2103b2(%rip)        # 6141f8 <_GLOBAL_OFFSET_TABLE_+0x210>
  403e46:	68 3f 00 00 00       	pushq  $0x3f
  403e4b:	e9 f0 fb ff ff       	jmpq   403a40 <_init+0x10>

0000000000403e50 <epoll_ctl@plt>:
  403e50:	ff 25 aa 03 21 00    	jmpq   *0x2103aa(%rip)        # 614200 <_GLOBAL_OFFSET_TABLE_+0x218>
  403e56:	68 40 00 00 00       	pushq  $0x40
  403e5b:	e9 e0 fb ff ff       	jmpq   403a40 <_init+0x10>

0000000000403e60 <_ZNSt14basic_ifstreamIcSt11char_traitsIcEED1Ev@plt>:
  403e60:	ff 25 a2 03 21 00    	jmpq   *0x2103a2(%rip)        # 614208 <_GLOBAL_OFFSET_TABLE_+0x220>
  403e66:	68 41 00 00 00       	pushq  $0x41
  403e6b:	e9 d0 fb ff ff       	jmpq   403a40 <_init+0x10>

0000000000403e70 <connect@plt>:
  403e70:	ff 25 9a 03 21 00    	jmpq   *0x21039a(%rip)        # 614210 <_GLOBAL_OFFSET_TABLE_+0x228>
  403e76:	68 42 00 00 00       	pushq  $0x42
  403e7b:	e9 c0 fb ff ff       	jmpq   403a40 <_init+0x10>

0000000000403e80 <_ZNSt6localeC1Ev@plt>:
  403e80:	ff 25 92 03 21 00    	jmpq   *0x210392(%rip)        # 614218 <_GLOBAL_OFFSET_TABLE_+0x230>
  403e86:	68 43 00 00 00       	pushq  $0x43
  403e8b:	e9 b0 fb ff ff       	jmpq   403a40 <_init+0x10>

0000000000403e90 <__cxa_pure_virtual@plt>:
  403e90:	ff 25 8a 03 21 00    	jmpq   *0x21038a(%rip)        # 614220 <_GLOBAL_OFFSET_TABLE_+0x238>
  403e96:	68 44 00 00 00       	pushq  $0x44
  403e9b:	e9 a0 fb ff ff       	jmpq   403a40 <_init+0x10>

0000000000403ea0 <_ZSt16__ostream_insertIcSt11char_traitsIcEERSt13basic_ostreamIT_T0_ES6_PKS3_l@plt>:
  403ea0:	ff 25 82 03 21 00    	jmpq   *0x210382(%rip)        # 614228 <_GLOBAL_OFFSET_TABLE_+0x240>
  403ea6:	68 45 00 00 00       	pushq  $0x45
  403eab:	e9 90 fb ff ff       	jmpq   403a40 <_init+0x10>

0000000000403eb0 <_ZNSt19basic_istringstreamIcSt11char_traitsIcESaIcEED1Ev@plt>:
  403eb0:	ff 25 7a 03 21 00    	jmpq   *0x21037a(%rip)        # 614230 <_GLOBAL_OFFSET_TABLE_+0x248>
  403eb6:	68 46 00 00 00       	pushq  $0x46
  403ebb:	e9 80 fb ff ff       	jmpq   403a40 <_init+0x10>

0000000000403ec0 <memmove@plt>:
  403ec0:	ff 25 72 03 21 00    	jmpq   *0x210372(%rip)        # 614238 <_GLOBAL_OFFSET_TABLE_+0x250>
  403ec6:	68 47 00 00 00       	pushq  $0x47
  403ecb:	e9 70 fb ff ff       	jmpq   403a40 <_init+0x10>

0000000000403ed0 <getopt_long@plt>:
  403ed0:	ff 25 6a 03 21 00    	jmpq   *0x21036a(%rip)        # 614240 <_GLOBAL_OFFSET_TABLE_+0x258>
  403ed6:	68 48 00 00 00       	pushq  $0x48
  403edb:	e9 60 fb ff ff       	jmpq   403a40 <_init+0x10>

0000000000403ee0 <socket@plt>:
  403ee0:	ff 25 62 03 21 00    	jmpq   *0x210362(%rip)        # 614248 <_GLOBAL_OFFSET_TABLE_+0x260>
  403ee6:	68 49 00 00 00       	pushq  $0x49
  403eeb:	e9 50 fb ff ff       	jmpq   403a40 <_init+0x10>

0000000000403ef0 <inet_ntoa@plt>:
  403ef0:	ff 25 5a 03 21 00    	jmpq   *0x21035a(%rip)        # 614250 <_GLOBAL_OFFSET_TABLE_+0x268>
  403ef6:	68 4a 00 00 00       	pushq  $0x4a
  403efb:	e9 40 fb ff ff       	jmpq   403a40 <_init+0x10>

0000000000403f00 <_ZNSt9basic_iosIcSt11char_traitsIcEE4initEPSt15basic_streambufIcS1_E@plt>:
  403f00:	ff 25 52 03 21 00    	jmpq   *0x210352(%rip)        # 614258 <_GLOBAL_OFFSET_TABLE_+0x270>
  403f06:	68 4b 00 00 00       	pushq  $0x4b
  403f0b:	e9 30 fb ff ff       	jmpq   403a40 <_init+0x10>

0000000000403f10 <__errno_location@plt>:
  403f10:	ff 25 4a 03 21 00    	jmpq   *0x21034a(%rip)        # 614260 <_GLOBAL_OFFSET_TABLE_+0x278>
  403f16:	68 4c 00 00 00       	pushq  $0x4c
  403f1b:	e9 20 fb ff ff       	jmpq   403a40 <_init+0x10>

0000000000403f20 <_ZSt29_Rb_tree_insert_and_rebalancebPSt18_Rb_tree_node_baseS0_RS_@plt>:
  403f20:	ff 25 42 03 21 00    	jmpq   *0x210342(%rip)        # 614268 <_GLOBAL_OFFSET_TABLE_+0x280>
  403f26:	68 4d 00 00 00       	pushq  $0x4d
  403f2b:	e9 10 fb ff ff       	jmpq   403a40 <_init+0x10>

0000000000403f30 <_ZNSo5flushEv@plt>:
  403f30:	ff 25 3a 03 21 00    	jmpq   *0x21033a(%rip)        # 614270 <_GLOBAL_OFFSET_TABLE_+0x288>
  403f36:	68 4e 00 00 00       	pushq  $0x4e
  403f3b:	e9 00 fb ff ff       	jmpq   403a40 <_init+0x10>

0000000000403f40 <_ZSt25__throw_bad_function_callv@plt>:
  403f40:	ff 25 32 03 21 00    	jmpq   *0x210332(%rip)        # 614278 <_GLOBAL_OFFSET_TABLE_+0x290>
  403f46:	68 4f 00 00 00       	pushq  $0x4f
  403f4b:	e9 f0 fa ff ff       	jmpq   403a40 <_init+0x10>

0000000000403f50 <__stack_chk_fail@plt>:
  403f50:	ff 25 2a 03 21 00    	jmpq   *0x21032a(%rip)        # 614280 <_GLOBAL_OFFSET_TABLE_+0x298>
  403f56:	68 50 00 00 00       	pushq  $0x50
  403f5b:	e9 e0 fa ff ff       	jmpq   403a40 <_init+0x10>

0000000000403f60 <_ZNSt8ios_baseD2Ev@plt>:
  403f60:	ff 25 22 03 21 00    	jmpq   *0x210322(%rip)        # 614288 <_GLOBAL_OFFSET_TABLE_+0x2a0>
  403f66:	68 51 00 00 00       	pushq  $0x51
  403f6b:	e9 d0 fa ff ff       	jmpq   403a40 <_init+0x10>

0000000000403f70 <_ZNSt12__basic_fileIcED1Ev@plt>:
  403f70:	ff 25 1a 03 21 00    	jmpq   *0x21031a(%rip)        # 614290 <_GLOBAL_OFFSET_TABLE_+0x2a8>
  403f76:	68 52 00 00 00       	pushq  $0x52
  403f7b:	e9 c0 fa ff ff       	jmpq   403a40 <_init+0x10>

0000000000403f80 <_ZNSs6assignEPKcm@plt>:
  403f80:	ff 25 12 03 21 00    	jmpq   *0x210312(%rip)        # 614298 <_GLOBAL_OFFSET_TABLE_+0x2b0>
  403f86:	68 53 00 00 00       	pushq  $0x53
  403f8b:	e9 b0 fa ff ff       	jmpq   403a40 <_init+0x10>

0000000000403f90 <epoll_wait@plt>:
  403f90:	ff 25 0a 03 21 00    	jmpq   *0x21030a(%rip)        # 6142a0 <_GLOBAL_OFFSET_TABLE_+0x2b8>
  403f96:	68 54 00 00 00       	pushq  $0x54
  403f9b:	e9 a0 fa ff ff       	jmpq   403a40 <_init+0x10>

0000000000403fa0 <_ZNSirsERi@plt>:
  403fa0:	ff 25 02 03 21 00    	jmpq   *0x210302(%rip)        # 6142a8 <_GLOBAL_OFFSET_TABLE_+0x2c0>
  403fa6:	68 55 00 00 00       	pushq  $0x55
  403fab:	e9 90 fa ff ff       	jmpq   403a40 <_init+0x10>

0000000000403fb0 <_ZNSt15basic_stringbufIcSt11char_traitsIcESaIcEE7_M_syncEPcmm@plt>:
  403fb0:	ff 25 fa 02 21 00    	jmpq   *0x2102fa(%rip)        # 6142b0 <_GLOBAL_OFFSET_TABLE_+0x2c8>
  403fb6:	68 56 00 00 00       	pushq  $0x56
  403fbb:	e9 80 fa ff ff       	jmpq   403a40 <_init+0x10>

0000000000403fc0 <_ZNSs6assignERKSs@plt>:
  403fc0:	ff 25 f2 02 21 00    	jmpq   *0x2102f2(%rip)        # 6142b8 <_GLOBAL_OFFSET_TABLE_+0x2d0>
  403fc6:	68 57 00 00 00       	pushq  $0x57
  403fcb:	e9 70 fa ff ff       	jmpq   403a40 <_init+0x10>

0000000000403fd0 <pthread_cond_wait@plt>:
  403fd0:	ff 25 ea 02 21 00    	jmpq   *0x2102ea(%rip)        # 6142c0 <_GLOBAL_OFFSET_TABLE_+0x2d8>
  403fd6:	68 58 00 00 00       	pushq  $0x58
  403fdb:	e9 60 fa ff ff       	jmpq   403a40 <_init+0x10>

0000000000403fe0 <_ZdaPv@plt>:
  403fe0:	ff 25 e2 02 21 00    	jmpq   *0x2102e2(%rip)        # 6142c8 <_GLOBAL_OFFSET_TABLE_+0x2e0>
  403fe6:	68 59 00 00 00       	pushq  $0x59
  403feb:	e9 50 fa ff ff       	jmpq   403a40 <_init+0x10>

0000000000403ff0 <memcmp@plt>:
  403ff0:	ff 25 da 02 21 00    	jmpq   *0x2102da(%rip)        # 6142d0 <_GLOBAL_OFFSET_TABLE_+0x2e8>
  403ff6:	68 5a 00 00 00       	pushq  $0x5a
  403ffb:	e9 40 fa ff ff       	jmpq   403a40 <_init+0x10>

0000000000404000 <_ZNSt9basic_iosIcSt11char_traitsIcEE5clearESt12_Ios_Iostate@plt>:
  404000:	ff 25 d2 02 21 00    	jmpq   *0x2102d2(%rip)        # 6142d8 <_GLOBAL_OFFSET_TABLE_+0x2f0>
  404006:	68 5b 00 00 00       	pushq  $0x5b
  40400b:	e9 30 fa ff ff       	jmpq   403a40 <_init+0x10>

0000000000404010 <fclose@plt>:
  404010:	ff 25 ca 02 21 00    	jmpq   *0x2102ca(%rip)        # 6142e0 <_GLOBAL_OFFSET_TABLE_+0x2f8>
  404016:	68 5c 00 00 00       	pushq  $0x5c
  40401b:	e9 20 fa ff ff       	jmpq   403a40 <_init+0x10>

0000000000404020 <dlopen@plt>:
  404020:	ff 25 c2 02 21 00    	jmpq   *0x2102c2(%rip)        # 6142e8 <_GLOBAL_OFFSET_TABLE_+0x300>
  404026:	68 5d 00 00 00       	pushq  $0x5d
  40402b:	e9 10 fa ff ff       	jmpq   403a40 <_init+0x10>

0000000000404030 <remove@plt>:
  404030:	ff 25 ba 02 21 00    	jmpq   *0x2102ba(%rip)        # 6142f0 <_GLOBAL_OFFSET_TABLE_+0x308>
  404036:	68 5e 00 00 00       	pushq  $0x5e
  40403b:	e9 00 fa ff ff       	jmpq   403a40 <_init+0x10>

0000000000404040 <_ZNSt13basic_filebufIcSt11char_traitsIcEEC1Ev@plt>:
  404040:	ff 25 b2 02 21 00    	jmpq   *0x2102b2(%rip)        # 6142f8 <_GLOBAL_OFFSET_TABLE_+0x310>
  404046:	68 5f 00 00 00       	pushq  $0x5f
  40404b:	e9 f0 f9 ff ff       	jmpq   403a40 <_init+0x10>

0000000000404050 <_ZNSo9_M_insertImEERSoT_@plt>:
  404050:	ff 25 aa 02 21 00    	jmpq   *0x2102aa(%rip)        # 614300 <_GLOBAL_OFFSET_TABLE_+0x318>
  404056:	68 60 00 00 00       	pushq  $0x60
  40405b:	e9 e0 f9 ff ff       	jmpq   403a40 <_init+0x10>

0000000000404060 <dlsym@plt>:
  404060:	ff 25 a2 02 21 00    	jmpq   *0x2102a2(%rip)        # 614308 <_GLOBAL_OFFSET_TABLE_+0x320>
  404066:	68 61 00 00 00       	pushq  $0x61
  40406b:	e9 d0 f9 ff ff       	jmpq   403a40 <_init+0x10>

0000000000404070 <_ZSt18_Rb_tree_incrementPSt18_Rb_tree_node_base@plt>:
  404070:	ff 25 9a 02 21 00    	jmpq   *0x21029a(%rip)        # 614310 <_GLOBAL_OFFSET_TABLE_+0x328>
  404076:	68 62 00 00 00       	pushq  $0x62
  40407b:	e9 c0 f9 ff ff       	jmpq   403a40 <_init+0x10>

0000000000404080 <__cxa_end_catch@plt>:
  404080:	ff 25 92 02 21 00    	jmpq   *0x210292(%rip)        # 614318 <_GLOBAL_OFFSET_TABLE_+0x330>
  404086:	68 63 00 00 00       	pushq  $0x63
  40408b:	e9 b0 f9 ff ff       	jmpq   403a40 <_init+0x10>

0000000000404090 <_ZSt17__throw_bad_allocv@plt>:
  404090:	ff 25 8a 02 21 00    	jmpq   *0x21028a(%rip)        # 614320 <_GLOBAL_OFFSET_TABLE_+0x338>
  404096:	68 64 00 00 00       	pushq  $0x64
  40409b:	e9 a0 f9 ff ff       	jmpq   403a40 <_init+0x10>

00000000004040a0 <_ZNSt13basic_filebufIcSt11char_traitsIcEED1Ev@plt>:
  4040a0:	ff 25 82 02 21 00    	jmpq   *0x210282(%rip)        # 614328 <_GLOBAL_OFFSET_TABLE_+0x340>
  4040a6:	68 65 00 00 00       	pushq  $0x65
  4040ab:	e9 90 f9 ff ff       	jmpq   403a40 <_init+0x10>

00000000004040b0 <__sprintf_chk@plt>:
  4040b0:	ff 25 7a 02 21 00    	jmpq   *0x21027a(%rip)        # 614330 <_GLOBAL_OFFSET_TABLE_+0x348>
  4040b6:	68 66 00 00 00       	pushq  $0x66
  4040bb:	e9 80 f9 ff ff       	jmpq   403a40 <_init+0x10>

00000000004040c0 <__snprintf_chk@plt>:
  4040c0:	ff 25 72 02 21 00    	jmpq   *0x210272(%rip)        # 614338 <_GLOBAL_OFFSET_TABLE_+0x350>
  4040c6:	68 67 00 00 00       	pushq  $0x67
  4040cb:	e9 70 f9 ff ff       	jmpq   403a40 <_init+0x10>

00000000004040d0 <fork@plt>:
  4040d0:	ff 25 6a 02 21 00    	jmpq   *0x21026a(%rip)        # 614340 <_GLOBAL_OFFSET_TABLE_+0x358>
  4040d6:	68 68 00 00 00       	pushq  $0x68
  4040db:	e9 60 f9 ff ff       	jmpq   403a40 <_init+0x10>

00000000004040e0 <_ZSt4endlIcSt11char_traitsIcEERSt13basic_ostreamIT_T0_ES6_@plt>:
  4040e0:	ff 25 62 02 21 00    	jmpq   *0x210262(%rip)        # 614348 <_GLOBAL_OFFSET_TABLE_+0x360>
  4040e6:	68 69 00 00 00       	pushq  $0x69
  4040eb:	e9 50 f9 ff ff       	jmpq   403a40 <_init+0x10>

00000000004040f0 <__cxa_guard_abort@plt>:
  4040f0:	ff 25 5a 02 21 00    	jmpq   *0x21025a(%rip)        # 614350 <_GLOBAL_OFFSET_TABLE_+0x368>
  4040f6:	68 6a 00 00 00       	pushq  $0x6a
  4040fb:	e9 40 f9 ff ff       	jmpq   403a40 <_init+0x10>

0000000000404100 <__cxa_begin_catch@plt>:
  404100:	ff 25 52 02 21 00    	jmpq   *0x210252(%rip)        # 614358 <_GLOBAL_OFFSET_TABLE_+0x370>
  404106:	68 6b 00 00 00       	pushq  $0x6b
  40410b:	e9 30 f9 ff ff       	jmpq   403a40 <_init+0x10>

0000000000404110 <bind@plt>:
  404110:	ff 25 4a 02 21 00    	jmpq   *0x21024a(%rip)        # 614360 <_GLOBAL_OFFSET_TABLE_+0x378>
  404116:	68 6c 00 00 00       	pushq  $0x6c
  40411b:	e9 20 f9 ff ff       	jmpq   403a40 <_init+0x10>

0000000000404120 <pthread_mutex_lock@plt>:
  404120:	ff 25 42 02 21 00    	jmpq   *0x210242(%rip)        # 614368 <_GLOBAL_OFFSET_TABLE_+0x380>
  404126:	68 6d 00 00 00       	pushq  $0x6d
  40412b:	e9 10 f9 ff ff       	jmpq   403a40 <_init+0x10>

0000000000404130 <perror@plt>:
  404130:	ff 25 3a 02 21 00    	jmpq   *0x21023a(%rip)        # 614370 <_GLOBAL_OFFSET_TABLE_+0x388>
  404136:	68 6e 00 00 00       	pushq  $0x6e
  40413b:	e9 00 f9 ff ff       	jmpq   403a40 <_init+0x10>

0000000000404140 <__gxx_personality_v0@plt>:
  404140:	ff 25 32 02 21 00    	jmpq   *0x210232(%rip)        # 614378 <_GLOBAL_OFFSET_TABLE_+0x390>
  404146:	68 6f 00 00 00       	pushq  $0x6f
  40414b:	e9 f0 f8 ff ff       	jmpq   403a40 <_init+0x10>

0000000000404150 <localtime@plt>:
  404150:	ff 25 2a 02 21 00    	jmpq   *0x21022a(%rip)        # 614380 <_GLOBAL_OFFSET_TABLE_+0x398>
  404156:	68 70 00 00 00       	pushq  $0x70
  40415b:	e9 e0 f8 ff ff       	jmpq   403a40 <_init+0x10>

0000000000404160 <pthread_mutex_destroy@plt>:
  404160:	ff 25 22 02 21 00    	jmpq   *0x210222(%rip)        # 614388 <_GLOBAL_OFFSET_TABLE_+0x3a0>
  404166:	68 71 00 00 00       	pushq  $0x71
  40416b:	e9 d0 f8 ff ff       	jmpq   403a40 <_init+0x10>

0000000000404170 <write@plt>:
  404170:	ff 25 1a 02 21 00    	jmpq   *0x21021a(%rip)        # 614390 <_GLOBAL_OFFSET_TABLE_+0x3a8>
  404176:	68 72 00 00 00       	pushq  $0x72
  40417b:	e9 c0 f8 ff ff       	jmpq   403a40 <_init+0x10>

0000000000404180 <_Znwm@plt>:
  404180:	ff 25 12 02 21 00    	jmpq   *0x210212(%rip)        # 614398 <_GLOBAL_OFFSET_TABLE_+0x3b0>
  404186:	68 73 00 00 00       	pushq  $0x73
  40418b:	e9 b0 f8 ff ff       	jmpq   403a40 <_init+0x10>

0000000000404190 <_ZNSsC1ERKSsmm@plt>:
  404190:	ff 25 0a 02 21 00    	jmpq   *0x21020a(%rip)        # 6143a0 <_GLOBAL_OFFSET_TABLE_+0x3b8>
  404196:	68 74 00 00 00       	pushq  $0x74
  40419b:	e9 a0 f8 ff ff       	jmpq   403a40 <_init+0x10>

00000000004041a0 <_Unwind_Resume@plt>:
  4041a0:	ff 25 02 02 21 00    	jmpq   *0x210202(%rip)        # 6143a8 <_GLOBAL_OFFSET_TABLE_+0x3c0>
  4041a6:	68 75 00 00 00       	pushq  $0x75
  4041ab:	e9 90 f8 ff ff       	jmpq   403a40 <_init+0x10>

00000000004041b0 <_ZNSt6localeD1Ev@plt>:
  4041b0:	ff 25 fa 01 21 00    	jmpq   *0x2101fa(%rip)        # 6143b0 <_GLOBAL_OFFSET_TABLE_+0x3c8>
  4041b6:	68 76 00 00 00       	pushq  $0x76
  4041bb:	e9 80 f8 ff ff       	jmpq   403a40 <_init+0x10>

00000000004041c0 <accept@plt>:
  4041c0:	ff 25 f2 01 21 00    	jmpq   *0x2101f2(%rip)        # 6143b8 <_GLOBAL_OFFSET_TABLE_+0x3d0>
  4041c6:	68 77 00 00 00       	pushq  $0x77
  4041cb:	e9 70 f8 ff ff       	jmpq   403a40 <_init+0x10>

00000000004041d0 <pthread_mutex_unlock@plt>:
  4041d0:	ff 25 ea 01 21 00    	jmpq   *0x2101ea(%rip)        # 6143c0 <_GLOBAL_OFFSET_TABLE_+0x3d8>
  4041d6:	68 78 00 00 00       	pushq  $0x78
  4041db:	e9 60 f8 ff ff       	jmpq   403a40 <_init+0x10>

00000000004041e0 <_ZNSo3putEc@plt>:
  4041e0:	ff 25 e2 01 21 00    	jmpq   *0x2101e2(%rip)        # 6143c8 <_GLOBAL_OFFSET_TABLE_+0x3e0>
  4041e6:	68 79 00 00 00       	pushq  $0x79
  4041eb:	e9 50 f8 ff ff       	jmpq   403a40 <_init+0x10>

00000000004041f0 <_ZNSs12_M_leak_hardEv@plt>:
  4041f0:	ff 25 da 01 21 00    	jmpq   *0x2101da(%rip)        # 6143d0 <_GLOBAL_OFFSET_TABLE_+0x3e8>
  4041f6:	68 7a 00 00 00       	pushq  $0x7a
  4041fb:	e9 40 f8 ff ff       	jmpq   403a40 <_init+0x10>

0000000000404200 <inet_ntop@plt>:
  404200:	ff 25 d2 01 21 00    	jmpq   *0x2101d2(%rip)        # 6143d8 <_GLOBAL_OFFSET_TABLE_+0x3f0>
  404206:	68 7b 00 00 00       	pushq  $0x7b
  40420b:	e9 30 f8 ff ff       	jmpq   403a40 <_init+0x10>

0000000000404210 <_ZNSs4swapERSs@plt>:
  404210:	ff 25 ca 01 21 00    	jmpq   *0x2101ca(%rip)        # 6143e0 <_GLOBAL_OFFSET_TABLE_+0x3f8>
  404216:	68 7c 00 00 00       	pushq  $0x7c
  40421b:	e9 20 f8 ff ff       	jmpq   403a40 <_init+0x10>

0000000000404220 <memcpy@plt>:
  404220:	ff 25 c2 01 21 00    	jmpq   *0x2101c2(%rip)        # 6143e8 <_GLOBAL_OFFSET_TABLE_+0x400>
  404226:	68 7d 00 00 00       	pushq  $0x7d
  40422b:	e9 10 f8 ff ff       	jmpq   403a40 <_init+0x10>

0000000000404230 <fcntl@plt>:
  404230:	ff 25 ba 01 21 00    	jmpq   *0x2101ba(%rip)        # 6143f0 <_GLOBAL_OFFSET_TABLE_+0x408>
  404236:	68 7e 00 00 00       	pushq  $0x7e
  40423b:	e9 00 f8 ff ff       	jmpq   403a40 <_init+0x10>

0000000000404240 <_ZNSs6appendERKSs@plt>:
  404240:	ff 25 b2 01 21 00    	jmpq   *0x2101b2(%rip)        # 6143f8 <_GLOBAL_OFFSET_TABLE_+0x410>
  404246:	68 7f 00 00 00       	pushq  $0x7f
  40424b:	e9 f0 f7 ff ff       	jmpq   403a40 <_init+0x10>

0000000000404250 <open@plt>:
  404250:	ff 25 aa 01 21 00    	jmpq   *0x2101aa(%rip)        # 614400 <_GLOBAL_OFFSET_TABLE_+0x418>
  404256:	68 80 00 00 00       	pushq  $0x80
  40425b:	e9 e0 f7 ff ff       	jmpq   403a40 <_init+0x10>

0000000000404260 <mmap@plt>:
  404260:	ff 25 a2 01 21 00    	jmpq   *0x2101a2(%rip)        # 614408 <_GLOBAL_OFFSET_TABLE_+0x420>
  404266:	68 81 00 00 00       	pushq  $0x81
  40426b:	e9 d0 f7 ff ff       	jmpq   403a40 <_init+0x10>

0000000000404270 <_ZNSt13basic_filebufIcSt11char_traitsIcEE5closeEv@plt>:
  404270:	ff 25 9a 01 21 00    	jmpq   *0x21019a(%rip)        # 614410 <_GLOBAL_OFFSET_TABLE_+0x428>
  404276:	68 82 00 00 00       	pushq  $0x82
  40427b:	e9 c0 f7 ff ff       	jmpq   403a40 <_init+0x10>

0000000000404280 <rename@plt>:
  404280:	ff 25 92 01 21 00    	jmpq   *0x210192(%rip)        # 614418 <_GLOBAL_OFFSET_TABLE_+0x430>
  404286:	68 83 00 00 00       	pushq  $0x83
  40428b:	e9 b0 f7 ff ff       	jmpq   403a40 <_init+0x10>

0000000000404290 <__fdelt_chk@plt>:
  404290:	ff 25 8a 01 21 00    	jmpq   *0x21018a(%rip)        # 614420 <_GLOBAL_OFFSET_TABLE_+0x438>
  404296:	68 84 00 00 00       	pushq  $0x84
  40429b:	e9 a0 f7 ff ff       	jmpq   403a40 <_init+0x10>

00000000004042a0 <time@plt>:
  4042a0:	ff 25 82 01 21 00    	jmpq   *0x210182(%rip)        # 614428 <_GLOBAL_OFFSET_TABLE_+0x440>
  4042a6:	68 85 00 00 00       	pushq  $0x85
  4042ab:	e9 90 f7 ff ff       	jmpq   403a40 <_init+0x10>

00000000004042b0 <fflush@plt>:
  4042b0:	ff 25 7a 01 21 00    	jmpq   *0x21017a(%rip)        # 614430 <_GLOBAL_OFFSET_TABLE_+0x448>
  4042b6:	68 86 00 00 00       	pushq  $0x86
  4042bb:	e9 80 f7 ff ff       	jmpq   403a40 <_init+0x10>

00000000004042c0 <inet_addr@plt>:
  4042c0:	ff 25 72 01 21 00    	jmpq   *0x210172(%rip)        # 614438 <_GLOBAL_OFFSET_TABLE_+0x450>
  4042c6:	68 87 00 00 00       	pushq  $0x87
  4042cb:	e9 70 f7 ff ff       	jmpq   403a40 <_init+0x10>

Disassembly of section .text:

00000000004042d0 <_ZNSs4_Rep10_M_disposeERKSaIcE.part.0>:
  static inline _Atomic_word
  __attribute__ ((__unused__))
  __exchange_and_add_dispatch(_Atomic_word* __mem, int __val)
  {
#ifdef __GTHREADS
    if (__gthread_active_p())
  4042d0:	48 83 3d a0 fc 20 00 	cmpq   $0x0,0x20fca0(%rip)        # 613f78 <_DYNAMIC+0x2f0>
  4042d7:	00 
  4042d8:	74 0a                	je     4042e4 <_ZNSs4_Rep10_M_disposeERKSaIcE.part.0+0x14>
  // __exchange_and_add_dispatch
  // __atomic_add_dispatch
#ifdef _GLIBCXX_ATOMIC_BUILTINS
  static inline _Atomic_word 
  __exchange_and_add(volatile _Atomic_word* __mem, int __val)
  { return __atomic_fetch_add(__mem, __val, __ATOMIC_ACQ_REL); }
  4042da:	83 c8 ff             	or     $0xffffffff,%eax
  4042dd:	f0 0f c1 47 10       	lock xadd %eax,0x10(%rdi)
  4042e2:	eb 09                	jmp    4042ed <_ZNSs4_Rep10_M_disposeERKSaIcE.part.0+0x1d>
#endif

  static inline _Atomic_word
  __exchange_and_add_single(_Atomic_word* __mem, int __val)
  {
    _Atomic_word __result = *__mem;
  4042e4:	8b 47 10             	mov    0x10(%rdi),%eax
    *__mem += __val;
  4042e7:	8d 50 ff             	lea    -0x1(%rax),%edx
  4042ea:	89 57 10             	mov    %edx,0x10(%rdi)
	  if (__builtin_expect(this != &_S_empty_rep(), false))
#endif
	    {
	      // Be race-detector-friendly.  For more info see bits/c++config.
	      _GLIBCXX_SYNCHRONIZATION_HAPPENS_BEFORE(&this->_M_refcount);
	      if (__gnu_cxx::__exchange_and_add_dispatch(&this->_M_refcount,
  4042ed:	85 c0                	test   %eax,%eax
  4042ef:	7f 05                	jg     4042f6 <_ZNSs4_Rep10_M_disposeERKSaIcE.part.0+0x26>
							 -1) <= 0)
		{
		  _GLIBCXX_SYNCHRONIZATION_HAPPENS_AFTER(&this->_M_refcount);
		  _M_destroy(__a);
  4042f1:	e9 7a fa ff ff       	jmpq   403d70 <_ZNSs4_Rep10_M_destroyERKSaIcE@plt>
  4042f6:	c3                   	retq   
  4042f7:	90                   	nop

00000000004042f8 <_ZNSs4_Rep10_M_disposeERKSaIcE.part.2>:
  static inline _Atomic_word
  __attribute__ ((__unused__))
  __exchange_and_add_dispatch(_Atomic_word* __mem, int __val)
  {
#ifdef __GTHREADS
    if (__gthread_active_p())
  4042f8:	48 83 3d 78 fc 20 00 	cmpq   $0x0,0x20fc78(%rip)        # 613f78 <_DYNAMIC+0x2f0>
  4042ff:	00 
  404300:	74 0a                	je     40430c <_ZNSs4_Rep10_M_disposeERKSaIcE.part.2+0x14>
  // __exchange_and_add_dispatch
  // __atomic_add_dispatch
#ifdef _GLIBCXX_ATOMIC_BUILTINS
  static inline _Atomic_word 
  __exchange_and_add(volatile _Atomic_word* __mem, int __val)
  { return __atomic_fetch_add(__mem, __val, __ATOMIC_ACQ_REL); }
  404302:	83 c8 ff             	or     $0xffffffff,%eax
  404305:	f0 0f c1 47 10       	lock xadd %eax,0x10(%rdi)
  40430a:	eb 09                	jmp    404315 <_ZNSs4_Rep10_M_disposeERKSaIcE.part.2+0x1d>
#endif

  static inline _Atomic_word
  __exchange_and_add_single(_Atomic_word* __mem, int __val)
  {
    _Atomic_word __result = *__mem;
  40430c:	8b 47 10             	mov    0x10(%rdi),%eax
    *__mem += __val;
  40430f:	8d 50 ff             	lea    -0x1(%rax),%edx
  404312:	89 57 10             	mov    %edx,0x10(%rdi)
	  if (__builtin_expect(this != &_S_empty_rep(), false))
#endif
	    {
	      // Be race-detector-friendly.  For more info see bits/c++config.
	      _GLIBCXX_SYNCHRONIZATION_HAPPENS_BEFORE(&this->_M_refcount);
	      if (__gnu_cxx::__exchange_and_add_dispatch(&this->_M_refcount,
  404315:	85 c0                	test   %eax,%eax
  404317:	7f 05                	jg     40431e <_ZNSs4_Rep10_M_disposeERKSaIcE.part.2+0x26>
							 -1) <= 0)
		{
		  _GLIBCXX_SYNCHRONIZATION_HAPPENS_AFTER(&this->_M_refcount);
		  _M_destroy(__a);
  404319:	e9 52 fa ff ff       	jmpq   403d70 <_ZNSs4_Rep10_M_destroyERKSaIcE@plt>
  40431e:	c3                   	retq   
  40431f:	90                   	nop

0000000000404320 <_ZNSs4_Rep10_M_disposeERKSaIcE.part.0>:
  static inline _Atomic_word
  __attribute__ ((__unused__))
  __exchange_and_add_dispatch(_Atomic_word* __mem, int __val)
  {
#ifdef __GTHREADS
    if (__gthread_active_p())
  404320:	48 83 3d 50 fc 20 00 	cmpq   $0x0,0x20fc50(%rip)        # 613f78 <_DYNAMIC+0x2f0>
  404327:	00 
  404328:	74 0a                	je     404334 <_ZNSs4_Rep10_M_disposeERKSaIcE.part.0+0x14>
  // __exchange_and_add_dispatch
  // __atomic_add_dispatch
#ifdef _GLIBCXX_ATOMIC_BUILTINS
  static inline _Atomic_word 
  __exchange_and_add(volatile _Atomic_word* __mem, int __val)
  { return __atomic_fetch_add(__mem, __val, __ATOMIC_ACQ_REL); }
  40432a:	83 c8 ff             	or     $0xffffffff,%eax
  40432d:	f0 0f c1 47 10       	lock xadd %eax,0x10(%rdi)
  404332:	eb 09                	jmp    40433d <_ZNSs4_Rep10_M_disposeERKSaIcE.part.0+0x1d>
#endif

  static inline _Atomic_word
  __exchange_and_add_single(_Atomic_word* __mem, int __val)
  {
    _Atomic_word __result = *__mem;
  404334:	8b 47 10             	mov    0x10(%rdi),%eax
    *__mem += __val;
  404337:	8d 50 ff             	lea    -0x1(%rax),%edx
  40433a:	89 57 10             	mov    %edx,0x10(%rdi)
	  if (__builtin_expect(this != &_S_empty_rep(), false))
#endif
	    {
	      // Be race-detector-friendly.  For more info see bits/c++config.
	      _GLIBCXX_SYNCHRONIZATION_HAPPENS_BEFORE(&this->_M_refcount);
	      if (__gnu_cxx::__exchange_and_add_dispatch(&this->_M_refcount,
  40433d:	85 c0                	test   %eax,%eax
  40433f:	7f 05                	jg     404346 <_ZNSs4_Rep10_M_disposeERKSaIcE.part.0+0x26>
							 -1) <= 0)
		{
		  _GLIBCXX_SYNCHRONIZATION_HAPPENS_AFTER(&this->_M_refcount);
		  _M_destroy(__a);
  404341:	e9 2a fa ff ff       	jmpq   403d70 <_ZNSs4_Rep10_M_destroyERKSaIcE@plt>
  404346:	c3                   	retq   
  404347:	90                   	nop

0000000000404348 <_ZN5Mutex4lockEv.part.3>:
    }

    void lock()
    {
        int ret = pthread_mutex_lock(&_mutex);
        assert(ret == 0);
  404348:	48 8d 0d 41 c7 00 00 	lea    0xc741(%rip),%rcx        # 410a90 <_ZZN5Mutex4lockEvE19__PRETTY_FUNCTION__>
            printf("~Mutex ret=%d, %p\n", ret, this);
            assert(ret == 0);
        }
    }

    void lock()
  40434f:	50                   	push   %rax
    {
        int ret = pthread_mutex_lock(&_mutex);
        assert(ret == 0);
  404350:	48 8d 35 2b c5 00 00 	lea    0xc52b(%rip),%rsi        # 410882 <_ZTSN6rocket12EpollWrapperE+0x2a2>
  404357:	48 8d 3d 2d c5 00 00 	lea    0xc52d(%rip),%rdi        # 41088b <_ZTSN6rocket12EpollWrapperE+0x2ab>
  40435e:	ba 3c 00 00 00       	mov    $0x3c,%edx
  404363:	e8 78 f8 ff ff       	callq  403be0 <__assert_fail@plt>

0000000000404368 <_ZN5Mutex6unlockEv.part.4>:
    void unlock()
    {
        int ret = pthread_mutex_unlock(&_mutex);
        perror("pthread_mutex_unlock");
        printf("~unlock ret=%d, %p\n", ret, this);
        assert(ret == 0);
  404368:	48 8d 0d 01 c7 00 00 	lea    0xc701(%rip),%rcx        # 410a70 <_ZZN5Mutex6unlockEvE19__PRETTY_FUNCTION__>
    {
        int ret = pthread_mutex_lock(&_mutex);
        assert(ret == 0);
    }

    void unlock()
  40436f:	50                   	push   %rax
    {
        int ret = pthread_mutex_unlock(&_mutex);
        perror("pthread_mutex_unlock");
        printf("~unlock ret=%d, %p\n", ret, this);
        assert(ret == 0);
  404370:	48 8d 35 0b c5 00 00 	lea    0xc50b(%rip),%rsi        # 410882 <_ZTSN6rocket12EpollWrapperE+0x2a2>
  404377:	48 8d 3d 0d c5 00 00 	lea    0xc50d(%rip),%rdi        # 41088b <_ZTSN6rocket12EpollWrapperE+0x2ab>
  40437e:	ba 44 00 00 00       	mov    $0x44,%edx
  404383:	e8 58 f8 ff ff       	callq  403be0 <__assert_fail@plt>

0000000000404388 <_ZNSs4_Rep10_M_disposeERKSaIcE.part.1>:
  static inline _Atomic_word
  __attribute__ ((__unused__))
  __exchange_and_add_dispatch(_Atomic_word* __mem, int __val)
  {
#ifdef __GTHREADS
    if (__gthread_active_p())
  404388:	48 83 3d e8 fb 20 00 	cmpq   $0x0,0x20fbe8(%rip)        # 613f78 <_DYNAMIC+0x2f0>
  40438f:	00 
  404390:	74 0a                	je     40439c <_ZNSs4_Rep10_M_disposeERKSaIcE.part.1+0x14>
  // __exchange_and_add_dispatch
  // __atomic_add_dispatch
#ifdef _GLIBCXX_ATOMIC_BUILTINS
  static inline _Atomic_word 
  __exchange_and_add(volatile _Atomic_word* __mem, int __val)
  { return __atomic_fetch_add(__mem, __val, __ATOMIC_ACQ_REL); }
  404392:	83 c8 ff             	or     $0xffffffff,%eax
  404395:	f0 0f c1 47 10       	lock xadd %eax,0x10(%rdi)
  40439a:	eb 09                	jmp    4043a5 <_ZNSs4_Rep10_M_disposeERKSaIcE.part.1+0x1d>
#endif

  static inline _Atomic_word
  __exchange_and_add_single(_Atomic_word* __mem, int __val)
  {
    _Atomic_word __result = *__mem;
  40439c:	8b 47 10             	mov    0x10(%rdi),%eax
    *__mem += __val;
  40439f:	8d 50 ff             	lea    -0x1(%rax),%edx
  4043a2:	89 57 10             	mov    %edx,0x10(%rdi)
	  if (__builtin_expect(this != &_S_empty_rep(), false))
#endif
	    {
	      // Be race-detector-friendly.  For more info see bits/c++config.
	      _GLIBCXX_SYNCHRONIZATION_HAPPENS_BEFORE(&this->_M_refcount);
	      if (__gnu_cxx::__exchange_and_add_dispatch(&this->_M_refcount,
  4043a5:	85 c0                	test   %eax,%eax
  4043a7:	7f 05                	jg     4043ae <_ZNSs4_Rep10_M_disposeERKSaIcE.part.1+0x26>
							 -1) <= 0)
		{
		  _GLIBCXX_SYNCHRONIZATION_HAPPENS_AFTER(&this->_M_refcount);
		  _M_destroy(__a);
  4043a9:	e9 c2 f9 ff ff       	jmpq   403d70 <_ZNSs4_Rep10_M_destroyERKSaIcE@plt>
  4043ae:	c3                   	retq   
  4043af:	90                   	nop

00000000004043b0 <_ZN6rocket5Mutex4lockEv.part.6>:
    }

    void lock()
    {
        int ret = pthread_mutex_lock(&mutex_);
        assert(ret == 0);
  4043b0:	48 8d 0d 49 cb 00 00 	lea    0xcb49(%rip),%rcx        # 410f00 <_ZZN6rocket5Mutex4lockEvE19__PRETTY_FUNCTION__>
            //perror("pthread_mutex_destroy");
            assert(ret == 0);
        }
    }

    void lock()
  4043b7:	50                   	push   %rax
    {
        int ret = pthread_mutex_lock(&mutex_);
        assert(ret == 0);
  4043b8:	48 8d 35 f9 c6 00 00 	lea    0xc6f9(%rip),%rsi        # 410ab8 <_ZTS10LoggerImpl+0xd>
  4043bf:	48 8d 3d c5 c4 00 00 	lea    0xc4c5(%rip),%rdi        # 41088b <_ZTSN6rocket12EpollWrapperE+0x2ab>
  4043c6:	ba 1f 00 00 00       	mov    $0x1f,%edx
  4043cb:	e8 10 f8 ff ff       	callq  403be0 <__assert_fail@plt>

00000000004043d0 <_ZN6rocket5Mutex6unlockEv.part.7>:

    void unlock()
    {
        int ret = pthread_mutex_unlock(&mutex_);
        //perror("pthread_mutex_unlock");
        assert(ret == 0);
  4043d0:	48 8d 0d 09 cb 00 00 	lea    0xcb09(%rip),%rcx        # 410ee0 <_ZZN6rocket5Mutex6unlockEvE19__PRETTY_FUNCTION__>
    {
        int ret = pthread_mutex_lock(&mutex_);
        assert(ret == 0);
    }

    void unlock()
  4043d7:	50                   	push   %rax
    {
        int ret = pthread_mutex_unlock(&mutex_);
        //perror("pthread_mutex_unlock");
        assert(ret == 0);
  4043d8:	48 8d 35 d9 c6 00 00 	lea    0xc6d9(%rip),%rsi        # 410ab8 <_ZTS10LoggerImpl+0xd>
  4043df:	48 8d 3d a5 c4 00 00 	lea    0xc4a5(%rip),%rdi        # 41088b <_ZTSN6rocket12EpollWrapperE+0x2ab>
  4043e6:	ba 26 00 00 00       	mov    $0x26,%edx
  4043eb:	e8 f0 f7 ff ff       	callq  403be0 <__assert_fail@plt>

00000000004043f0 <_GLOBAL__sub_I_config_reader.cc>:
  extern wostream wclog;	/// Linked to standard error (buffered)
#endif
  //@}

  // For construction of filebuffers for cout, cin, cerr, clog et. al.
  static ios_base::Init __ioinit;
  4043f0:	48 8d 3d 4d 01 21 00 	lea    0x21014d(%rip),%rdi        # 614544 <_ZStL8__ioinit>
    s.erase(s.find_last_not_of(blank) + 1);
    
    return s;
}

  4043f7:	48 83 ec 08          	sub    $0x8,%rsp
  4043fb:	e8 30 f8 ff ff       	callq  403c30 <_ZNSt8ios_base4InitC1Ev@plt>
  404400:	48 8b 3d e1 fa 20 00 	mov    0x20fae1(%rip),%rdi        # 613ee8 <_DYNAMIC+0x260>
  404407:	48 8d 15 3a 00 21 00 	lea    0x21003a(%rip),%rdx        # 614448 <__dso_handle>
  40440e:	48 8d 35 2f 01 21 00 	lea    0x21012f(%rip),%rsi        # 614544 <_ZStL8__ioinit>
  404415:	48 83 c4 08          	add    $0x8,%rsp
  404419:	e9 b2 f8 ff ff       	jmpq   403cd0 <__cxa_atexit@plt>
  40441e:	90                   	nop
  40441f:	90                   	nop

0000000000404420 <_GLOBAL__sub_I_event_dispatcher.cc>:
  404420:	48 8d 3d 21 01 21 00 	lea    0x210121(%rip),%rdi        # 614548 <_ZStL8__ioinit>
    if (epoll_.is_write(events)) {
        LOG_ERROR("ProcessEvents WRITE EVENT, fd=%d", fd);
    }
}

  404427:	48 83 ec 08          	sub    $0x8,%rsp
  40442b:	e8 00 f8 ff ff       	callq  403c30 <_ZNSt8ios_base4InitC1Ev@plt>
  404430:	48 8b 3d b1 fa 20 00 	mov    0x20fab1(%rip),%rdi        # 613ee8 <_DYNAMIC+0x260>
  404437:	48 8d 15 0a 00 21 00 	lea    0x21000a(%rip),%rdx        # 614448 <__dso_handle>
  40443e:	48 8d 35 03 01 21 00 	lea    0x210103(%rip),%rsi        # 614548 <_ZStL8__ioinit>
  404445:	48 83 c4 08          	add    $0x8,%rsp
  404449:	e9 82 f8 ff ff       	jmpq   403cd0 <__cxa_atexit@plt>
  40444e:	90                   	nop
  40444f:	90                   	nop

0000000000404450 <main>:
        fclose(fp);
    }
}

int main(int argc, char* argv[])
{
  404450:	55                   	push   %rbp
  404451:	48 89 e5             	mov    %rsp,%rbp
  404454:	41 56                	push   %r14
  404456:	41 54                	push   %r12
  404458:	53                   	push   %rbx
  404459:	48 81 ec 98 01 00 00 	sub    $0x198,%rsp
  404460:	64 48 8b 04 25 28 00 	mov    %fs:0x28,%rax
  404467:	00 00 
  404469:	48 89 45 d8          	mov    %rax,-0x28(%rbp)
  40446d:	31 c0                	xor    %eax,%eax
    /* parse parameter option */
    if (parse_options(argc, argv) != 0)
  40446f:	e8 cc 95 00 00       	callq  40da40 <_Z13parse_optionsiPPc>
  404474:	85 c0                	test   %eax,%eax
  404476:	0f 85 d4 01 00 00    	jne    404650 <main+0x200>

      // Use empty-base optimization: http://www.cantrip.org/emptyopt.html
      struct _Alloc_hider : _Alloc
      {
	_Alloc_hider(_CharT* __dat, const _Alloc& __a) _GLIBCXX_NOEXCEPT
	: _Alloc(__a), _M_p(__dat) { }
  40447c:	48 8b 05 dd fa 20 00 	mov    0x20fadd(%rip),%rax        # 613f60 <_DYNAMIC+0x2d8>
        exit(EXIT_FAILURE);
    }

    Config cfg;

    if (!cfg.load(opt_config))
  404483:	48 8d 9d 50 fe ff ff 	lea    -0x1b0(%rbp),%rbx
  40448a:	48 8b 35 77 0a 21 00 	mov    0x210a77(%rip),%rsi        # 614f08 <_ZL10opt_config>
    int rotate;
    unsigned count;
    size_t size;
    bool display;  // display to screen

    LogConfig() : file(), level(LEVEL_DEBUG), rotate(ROTATE_DAILY), count(10), size(104857600), display(true)
  404491:	c7 85 88 fe ff ff 00 	movl   $0x0,-0x178(%rbp)
  404498:	00 00 00 
  40449b:	c7 85 8c fe ff ff 00 	movl   $0x0,-0x174(%rbp)
  4044a2:	00 00 00 
  4044a5:	48 89 df             	mov    %rbx,%rdi
  4044a8:	c7 85 90 fe ff ff 0a 	movl   $0xa,-0x170(%rbp)
  4044af:	00 00 00 
  4044b2:	48 c7 85 98 fe ff ff 	movq   $0x6400000,-0x168(%rbp)
  4044b9:	00 00 40 06 
  4044bd:	48 83 c0 18          	add    $0x18,%rax
  4044c1:	c6 85 a0 fe ff ff 01 	movb   $0x1,-0x160(%rbp)
  4044c8:	48 89 85 50 fe ff ff 	mov    %rax,-0x1b0(%rbp)
  4044cf:	48 89 85 70 fe ff ff 	mov    %rax,-0x190(%rbp)
  4044d6:	48 89 85 78 fe ff ff 	mov    %rax,-0x188(%rbp)
  4044dd:	48 89 85 80 fe ff ff 	mov    %rax,-0x180(%rbp)
  4044e4:	e8 c7 03 00 00       	callq  4048b0 <_ZN6rocket6Config4loadEPKc>
  4044e9:	84 c0                	test   %al,%al
  4044eb:	0f 84 69 01 00 00    	je     40465a <main+0x20a>
    {
        fprintf(stderr, "load config file %s failed\n", opt_config);
        exit(EXIT_FAILURE);
    }

    std::cout << "log path:" << cfg._log_cfg.file << std::endl;
  4044f1:	48 8b 3d 28 fa 20 00 	mov    0x20fa28(%rip),%rdi        # 613f20 <_DYNAMIC+0x298>
  4044f8:	48 8d 35 92 c6 00 00 	lea    0xc692(%rip),%rsi        # 410b91 <_ZTS10LoggerImpl+0xe6>
  4044ff:	e8 2c f8 ff ff       	callq  403d30 <_ZStlsISt11char_traitsIcEERSt13basic_ostreamIcT_ES5_PKc@plt>
      // Data Members (private):
      mutable _Alloc_hider	_M_dataplus;

      _CharT*
      _M_data() const _GLIBCXX_NOEXCEPT
      { return  _M_dataplus._M_p; }
  404504:	48 8b b5 80 fe ff ff 	mov    -0x180(%rbp),%rsi
    operator<<(basic_ostream<_CharT, _Traits>& __os,
	       const basic_string<_CharT, _Traits, _Alloc>& __str)
    {
      // _GLIBCXX_RESOLVE_LIB_DEFECTS
      // 586. string inserter not a formatted function
      return __ostream_insert(__os, __str.data(), __str.size());
  40450b:	48 89 c7             	mov    %rax,%rdi
  40450e:	48 8b 56 e8          	mov    -0x18(%rsi),%rdx
  404512:	e8 89 f9 ff ff       	callq  403ea0 <_ZSt16__ostream_insertIcSt11char_traitsIcEERSt13basic_ostreamIT_T0_ES6_PKS3_l@plt>
      operator<<(__ostream_type& (*__pf)(__ostream_type&))
      {
	// _GLIBCXX_RESOLVE_LIB_DEFECTS
	// DR 60. What is a formatted input function?
	// The inserters for manipulators are *not* formatted output functions.
	return __pf(*this);
  404517:	48 89 c7             	mov    %rax,%rdi
  40451a:	e8 c1 fb ff ff       	callq  4040e0 <_ZSt4endlIcSt11char_traitsIcEERSt13basic_ostreamIT_T0_ES6_@plt>
    LOG(ERROR) << "ERROR1";  
    //LOG(FATAL) << "FATAL";  
    google::ShutdownGoogleLogging();  
    */
    
    LOGGER.init(cfg._log_cfg);
  40451f:	e8 0c 76 00 00       	callq  40bb30 <_ZN6Logger9getLoggerEv>
  404524:	48 8b 10             	mov    (%rax),%rdx
  404527:	48 8d 73 30          	lea    0x30(%rbx),%rsi
  40452b:	48 89 c7             	mov    %rax,%rdi
  40452e:	ff 12                	callq  *(%rdx)

    LOG_INFO("rocket server listen on %s:%d", cfg._ip.c_str(), cfg._port);
  404530:	e8 fb 75 00 00       	callq  40bb30 <_ZN6Logger9getLoggerEv>
  404535:	8b 95 58 fe ff ff    	mov    -0x1a8(%rbp),%edx
  40453b:	51                   	push   %rcx
  40453c:	48 89 c7             	mov    %rax,%rdi
  40453f:	4c 8b 10             	mov    (%rax),%r10
  404542:	4c 8b 8d 50 fe ff ff 	mov    -0x1b0(%rbp),%r9
  404549:	4c 8d 05 4b c6 00 00 	lea    0xc64b(%rip),%r8        # 410b9b <_ZTS10LoggerImpl+0xf0>
  404550:	b9 bc 00 00 00       	mov    $0xbc,%ecx
  404555:	be 01 00 00 00       	mov    $0x1,%esi
  40455a:	31 c0                	xor    %eax,%eax
  40455c:	52                   	push   %rdx
  40455d:	48 8d 15 55 c6 00 00 	lea    0xc655(%rip),%rdx        # 410bb9 <_ZTS10LoggerImpl+0x10e>
  404564:	41 ff 52 20          	callq  *0x20(%r10)
  404568:	58                   	pop    %rax
  404569:	5a                   	pop    %rdx
    LOG_INFO("server thread pool size:%d", cfg._net_nthreads);
  40456a:	e8 c1 75 00 00       	callq  40bb30 <_ZN6Logger9getLoggerEv>
  40456f:	4c 8b 10             	mov    (%rax),%r10
  404572:	48 89 c7             	mov    %rax,%rdi
  404575:	44 8b 8d 5c fe ff ff 	mov    -0x1a4(%rbp),%r9d
  40457c:	4c 8d 05 3e c6 00 00 	lea    0xc63e(%rip),%r8        # 410bc1 <_ZTS10LoggerImpl+0x116>
  404583:	b9 bd 00 00 00       	mov    $0xbd,%ecx
  404588:	48 8d 15 2a c6 00 00 	lea    0xc62a(%rip),%rdx        # 410bb9 <_ZTS10LoggerImpl+0x10e>
  40458f:	be 01 00 00 00       	mov    $0x1,%esi
  404594:	31 c0                	xor    %eax,%eax
  404596:	41 ff 52 20          	callq  *0x20(%r10)

    // so
    if (0 == load_so(cfg._app_so.c_str()))
  40459a:	48 8b bd 70 fe ff ff 	mov    -0x190(%rbp),%rdi
  4045a1:	e8 da 72 00 00       	callq  40b880 <_ZN6rocket7load_soEPKc>
  4045a6:	85 c0                	test   %eax,%eax
  4045a8:	0f 85 d2 00 00 00    	jne    404680 <main+0x230>
    {
        int ret = rocket_dll.rocket_handle_init((void *)cfg._app_conf.c_str());
  4045ae:	48 8b 05 5b f9 20 00 	mov    0x20f95b(%rip),%rax        # 613f10 <_DYNAMIC+0x288>
  4045b5:	48 8b bd 78 fe ff ff 	mov    -0x188(%rbp),%rdi
  4045bc:	ff 50 08             	callq  *0x8(%rax)
        if (ret != 0)
  4045bf:	85 c0                	test   %eax,%eax
    LOG_INFO("server thread pool size:%d", cfg._net_nthreads);

    // so
    if (0 == load_so(cfg._app_so.c_str()))
    {
        int ret = rocket_dll.rocket_handle_init((void *)cfg._app_conf.c_str());
  4045c1:	41 89 c4             	mov    %eax,%r12d
        if (ret != 0)
  4045c4:	75 5e                	jne    404624 <main+0x1d4>
        LOG_ERROR("load so %s failed", cfg._app_so.c_str());
        exit(EXIT_FAILURE);
    }

    // run as daemon if daemonize is set true
    if (do_daemonize)
  4045c6:	80 3d 33 09 21 00 00 	cmpb   $0x0,0x210933(%rip)        # 614f00 <_ZL12do_daemonize>
  4045cd:	74 0e                	je     4045dd <main+0x18d>
    {
        if (daemonize() == -1)
  4045cf:	e8 8c 95 00 00       	callq  40db60 <_Z9daemonizev>
  4045d4:	83 c0 01             	add    $0x1,%eax
  4045d7:	0f 84 d5 00 00 00    	je     4046b2 <main+0x262>
            exit(EXIT_FAILURE);
        }
    }

    //create pid file
    createPidFile();
  4045dd:	e8 6e 96 00 00       	callq  40dc50 <_Z13createPidFilev>
    boost::asio::io_gservice io_service;
    Server s(io_service, port, thread_pool_size);
    io_service.run();
    */

    Server s(port, thread_pool_size);
  4045e2:	0f bf b5 58 fe ff ff 	movswl -0x1a8(%rbp),%esi
  4045e9:	48 8d 85 b0 fe ff ff 	lea    -0x150(%rbp),%rax
  4045f0:	8b 95 5c fe ff ff    	mov    -0x1a4(%rbp),%edx
  4045f6:	b9 01 00 00 00       	mov    $0x1,%ecx
  4045fb:	48 89 c7             	mov    %rax,%rdi
  4045fe:	49 89 c4             	mov    %rax,%r12
  404601:	49 89 c6             	mov    %rax,%r14
  404604:	e8 e7 9c 00 00       	callq  40e2f0 <_ZN6rocket6ServerC1Ejii>
    s.run();
  404609:	4c 89 e7             	mov    %r12,%rdi
  40460c:	e8 2f a2 00 00       	callq  40e840 <_ZN6rocket6Server3runEv>
  404611:	0f 1f 80 00 00 00 00 	nopl   0x0(%rax)

    while (true) {
        usleep(1);
  404618:	bf 01 00 00 00       	mov    $0x1,%edi
  40461d:	e8 0e f8 ff ff       	callq  403e30 <usleep@plt>
  404622:	eb f4                	jmp    404618 <main+0x1c8>
    if (0 == load_so(cfg._app_so.c_str()))
    {
        int ret = rocket_dll.rocket_handle_init((void *)cfg._app_conf.c_str());
        if (ret != 0)
        {
            LOG_ERROR("handle init error, ret: %d", ret);
  404624:	e8 07 75 00 00       	callq  40bb30 <_ZN6Logger9getLoggerEv>
  404629:	4c 8b 10             	mov    (%rax),%r10
  40462c:	48 89 c7             	mov    %rax,%rdi
  40462f:	45 89 e1             	mov    %r12d,%r9d
  404632:	4c 8d 05 a3 c5 00 00 	lea    0xc5a3(%rip),%r8        # 410bdc <_ZTS10LoggerImpl+0x131>
  404639:	b9 c5 00 00 00       	mov    $0xc5,%ecx
  40463e:	48 8d 15 74 c5 00 00 	lea    0xc574(%rip),%rdx        # 410bb9 <_ZTS10LoggerImpl+0x10e>
  404645:	be 03 00 00 00       	mov    $0x3,%esi
  40464a:	31 c0                	xor    %eax,%eax
  40464c:	41 ff 52 20          	callq  *0x20(%r10)
int main(int argc, char* argv[])
{
    /* parse parameter option */
    if (parse_options(argc, argv) != 0)
    {
        exit(EXIT_FAILURE);
  404650:	bf 01 00 00 00       	mov    $0x1,%edi
  404655:	e8 76 f5 ff ff       	callq  403bd0 <exit@plt>
# ifdef __va_arg_pack
__extern_always_inline int
fprintf (FILE *__restrict __stream, __const char *__restrict __fmt, ...)
{
  return __fprintf_chk (__stream, __USE_FORTIFY_LEVEL - 1, __fmt,
			__va_arg_pack ());
  40465a:	48 8b 05 0f f9 20 00 	mov    0x20f90f(%rip),%rax        # 613f70 <_DYNAMIC+0x2e8>
  404661:	48 8b 0d a0 08 21 00 	mov    0x2108a0(%rip),%rcx        # 614f08 <_ZL10opt_config>
  404668:	48 8d 15 06 c5 00 00 	lea    0xc506(%rip),%rdx        # 410b75 <_ZTS10LoggerImpl+0xca>
  40466f:	be 01 00 00 00       	mov    $0x1,%esi
  404674:	48 8b 38             	mov    (%rax),%rdi
  404677:	31 c0                	xor    %eax,%eax
  404679:	e8 e2 f4 ff ff       	callq  403b60 <__fprintf_chk@plt>
  40467e:	eb d0                	jmp    404650 <main+0x200>
            exit(EXIT_FAILURE);
        }
    }
    else
    {
        LOG_ERROR("load so %s failed", cfg._app_so.c_str());
  404680:	e8 ab 74 00 00       	callq  40bb30 <_ZN6Logger9getLoggerEv>
  404685:	4c 8b 10             	mov    (%rax),%r10
  404688:	48 89 c7             	mov    %rax,%rdi
  40468b:	4c 8b 8d 70 fe ff ff 	mov    -0x190(%rbp),%r9
  404692:	4c 8d 05 5e c5 00 00 	lea    0xc55e(%rip),%r8        # 410bf7 <_ZTS10LoggerImpl+0x14c>
  404699:	b9 cb 00 00 00       	mov    $0xcb,%ecx
  40469e:	48 8d 15 14 c5 00 00 	lea    0xc514(%rip),%rdx        # 410bb9 <_ZTS10LoggerImpl+0x10e>
  4046a5:	be 03 00 00 00       	mov    $0x3,%esi
  4046aa:	31 c0                	xor    %eax,%eax
  4046ac:	41 ff 52 20          	callq  *0x20(%r10)
  4046b0:	eb 9e                	jmp    404650 <main+0x200>
  4046b2:	48 8b 05 b7 f8 20 00 	mov    0x20f8b7(%rip),%rax        # 613f70 <_DYNAMIC+0x2e8>
  4046b9:	48 8d 15 49 c5 00 00 	lea    0xc549(%rip),%rdx        # 410c09 <_ZTS10LoggerImpl+0x15e>
  4046c0:	be 01 00 00 00       	mov    $0x1,%esi
  4046c5:	48 8b 38             	mov    (%rax),%rdi
  4046c8:	31 c0                	xor    %eax,%eax
  4046ca:	e8 91 f4 ff ff       	callq  403b60 <__fprintf_chk@plt>
  4046cf:	e9 7c ff ff ff       	jmpq   404650 <main+0x200>
  4046d4:	49 89 c4             	mov    %rax,%r12

    while (true) {
        usleep(1);
    }

    return 0;
  4046d7:	48 89 df             	mov    %rbx,%rdi
  4046da:	e8 91 96 00 00       	callq  40dd70 <_ZN6rocket6ConfigD1Ev>
  4046df:	4c 89 e7             	mov    %r12,%rdi
  4046e2:	e8 b9 fa ff ff       	callq  4041a0 <_Unwind_Resume@plt>
    boost::asio::io_gservice io_service;
    Server s(io_service, port, thread_pool_size);
    io_service.run();
    */

    Server s(port, thread_pool_size);
  4046e7:	4c 89 f7             	mov    %r14,%rdi
  4046ea:	49 89 c4             	mov    %rax,%r12
  4046ed:	e8 ae 95 00 00       	callq  40dca0 <_ZN6rocket6ServerD1Ev>
  4046f2:	eb e3                	jmp    4046d7 <main+0x287>
  4046f4:	66 66 66 2e 0f 1f 84 	data32 data32 nopw %cs:0x0(%rax,%rax,1)
  4046fb:	00 00 00 00 00 

0000000000404700 <_GLOBAL__sub_I_main.cc>:
  404700:	48 8d 3d 09 08 21 00 	lea    0x210809(%rip),%rdi        # 614f10 <_ZStL8__ioinit>
    while (true) {
        usleep(1);
    }

    return 0;
  404707:	48 83 ec 08          	sub    $0x8,%rsp
  40470b:	e8 20 f5 ff ff       	callq  403c30 <_ZNSt8ios_base4InitC1Ev@plt>
  404710:	48 8b 3d d1 f7 20 00 	mov    0x20f7d1(%rip),%rdi        # 613ee8 <_DYNAMIC+0x260>
  404717:	48 8d 15 2a fd 20 00 	lea    0x20fd2a(%rip),%rdx        # 614448 <__dso_handle>
  40471e:	48 8d 35 eb 07 21 00 	lea    0x2107eb(%rip),%rsi        # 614f10 <_ZStL8__ioinit>
  404725:	48 83 c4 08          	add    $0x8,%rsp
  404729:	e9 a2 f5 ff ff       	jmpq   403cd0 <__cxa_atexit@plt>
  40472e:	90                   	nop
  40472f:	90                   	nop

0000000000404730 <_GLOBAL__sub_I_server.cc>:
  404730:	48 8d 3d dd 07 21 00 	lea    0x2107dd(%rip),%rdi        # 614f14 <_ZStL8__ioinit>

void Server::WriteCallback(int fd) {

}

} // namespace rocket
  404737:	48 83 ec 08          	sub    $0x8,%rsp
  40473b:	e8 f0 f4 ff ff       	callq  403c30 <_ZNSt8ios_base4InitC1Ev@plt>
  404740:	48 8b 3d a1 f7 20 00 	mov    0x20f7a1(%rip),%rdi        # 613ee8 <_DYNAMIC+0x260>
  404747:	48 8d 15 fa fc 20 00 	lea    0x20fcfa(%rip),%rdx        # 614448 <__dso_handle>
  40474e:	48 8d 35 bf 07 21 00 	lea    0x2107bf(%rip),%rsi        # 614f14 <_ZStL8__ioinit>
  404755:	48 83 c4 08          	add    $0x8,%rsp
  404759:	e9 72 f5 ff ff       	jmpq   403cd0 <__cxa_atexit@plt>
  40475e:	90                   	nop
  40475f:	90                   	nop

0000000000404760 <_GLOBAL__sub_I_socket_util.cc>:
  404760:	48 8d 3d b1 07 21 00 	lea    0x2107b1(%rip),%rdi        # 614f18 <_ZStL8__ioinit>
  char err[60];
  snprintf(err,sizeof(err),"error %d", error);
  return std::string(err);
}

}
  404767:	48 83 ec 08          	sub    $0x8,%rsp
  40476b:	e8 c0 f4 ff ff       	callq  403c30 <_ZNSt8ios_base4InitC1Ev@plt>
  404770:	48 8b 3d 71 f7 20 00 	mov    0x20f771(%rip),%rdi        # 613ee8 <_DYNAMIC+0x260>
  404777:	48 8d 15 ca fc 20 00 	lea    0x20fcca(%rip),%rdx        # 614448 <__dso_handle>
  40477e:	48 8d 35 93 07 21 00 	lea    0x210793(%rip),%rsi        # 614f18 <_ZStL8__ioinit>
  404785:	48 83 c4 08          	add    $0x8,%rsp
  404789:	e9 42 f5 ff ff       	jmpq   403cd0 <__cxa_atexit@plt>
  40478e:	90                   	nop
  40478f:	90                   	nop

0000000000404790 <_start>:
  404790:	31 ed                	xor    %ebp,%ebp
  404792:	49 89 d1             	mov    %rdx,%r9
  404795:	5e                   	pop    %rsi
  404796:	48 89 e2             	mov    %rsp,%rdx
  404799:	48 83 e4 f0          	and    $0xfffffffffffffff0,%rsp
  40479d:	50                   	push   %rax
  40479e:	54                   	push   %rsp
  40479f:	49 c7 c0 40 03 41 00 	mov    $0x410340,%r8
  4047a6:	48 c7 c1 b0 02 41 00 	mov    $0x4102b0,%rcx
  4047ad:	48 c7 c7 50 44 40 00 	mov    $0x404450,%rdi
  4047b4:	e8 b7 f4 ff ff       	callq  403c70 <__libc_start_main@plt>
  4047b9:	f4                   	hlt    
  4047ba:	90                   	nop
  4047bb:	90                   	nop

00000000004047bc <call_gmon_start>:
  4047bc:	48 83 ec 08          	sub    $0x8,%rsp
  4047c0:	48 8b 05 f9 f6 20 00 	mov    0x20f6f9(%rip),%rax        # 613ec0 <_DYNAMIC+0x238>
  4047c7:	48 85 c0             	test   %rax,%rax
  4047ca:	74 02                	je     4047ce <call_gmon_start+0x12>
  4047cc:	ff d0                	callq  *%rax
  4047ce:	48 83 c4 08          	add    $0x8,%rsp
  4047d2:	c3                   	retq   
  4047d3:	90                   	nop
  4047d4:	90                   	nop
  4047d5:	90                   	nop
  4047d6:	90                   	nop
  4047d7:	90                   	nop
  4047d8:	90                   	nop
  4047d9:	90                   	nop
  4047da:	90                   	nop
  4047db:	90                   	nop
  4047dc:	90                   	nop
  4047dd:	90                   	nop
  4047de:	90                   	nop
  4047df:	90                   	nop

00000000004047e0 <deregister_tm_clones>:
  4047e0:	b8 27 45 61 00       	mov    $0x614527,%eax
  4047e5:	55                   	push   %rbp
  4047e6:	48 2d 20 45 61 00    	sub    $0x614520,%rax
  4047ec:	48 83 f8 0e          	cmp    $0xe,%rax
  4047f0:	48 89 e5             	mov    %rsp,%rbp
  4047f3:	76 1b                	jbe    404810 <deregister_tm_clones+0x30>
  4047f5:	b8 00 00 00 00       	mov    $0x0,%eax
  4047fa:	48 85 c0             	test   %rax,%rax
  4047fd:	74 11                	je     404810 <deregister_tm_clones+0x30>
  4047ff:	5d                   	pop    %rbp
  404800:	bf 20 45 61 00       	mov    $0x614520,%edi
  404805:	ff e0                	jmpq   *%rax
  404807:	66 0f 1f 84 00 00 00 	nopw   0x0(%rax,%rax,1)
  40480e:	00 00 
  404810:	5d                   	pop    %rbp
  404811:	c3                   	retq   
  404812:	66 66 66 66 66 2e 0f 	data32 data32 data32 data32 nopw %cs:0x0(%rax,%rax,1)
  404819:	1f 84 00 00 00 00 00 

0000000000404820 <register_tm_clones>:
  404820:	be 20 45 61 00       	mov    $0x614520,%esi
  404825:	55                   	push   %rbp
  404826:	48 81 ee 20 45 61 00 	sub    $0x614520,%rsi
  40482d:	48 c1 fe 03          	sar    $0x3,%rsi
  404831:	48 89 e5             	mov    %rsp,%rbp
  404834:	48 89 f0             	mov    %rsi,%rax
  404837:	48 c1 e8 3f          	shr    $0x3f,%rax
  40483b:	48 01 c6             	add    %rax,%rsi
  40483e:	48 d1 fe             	sar    %rsi
  404841:	74 15                	je     404858 <register_tm_clones+0x38>
  404843:	b8 00 00 00 00       	mov    $0x0,%eax
  404848:	48 85 c0             	test   %rax,%rax
  40484b:	74 0b                	je     404858 <register_tm_clones+0x38>
  40484d:	5d                   	pop    %rbp
  40484e:	bf 20 45 61 00       	mov    $0x614520,%edi
  404853:	ff e0                	jmpq   *%rax
  404855:	0f 1f 00             	nopl   (%rax)
  404858:	5d                   	pop    %rbp
  404859:	c3                   	retq   
  40485a:	66 0f 1f 44 00 00    	nopw   0x0(%rax,%rax,1)

0000000000404860 <__do_global_dtors_aux>:
  404860:	80 3d d9 fc 20 00 00 	cmpb   $0x0,0x20fcd9(%rip)        # 614540 <completed.7241>
  404867:	75 11                	jne    40487a <__do_global_dtors_aux+0x1a>
  404869:	55                   	push   %rbp
  40486a:	48 89 e5             	mov    %rsp,%rbp
  40486d:	e8 6e ff ff ff       	callq  4047e0 <deregister_tm_clones>
  404872:	5d                   	pop    %rbp
  404873:	c6 05 c6 fc 20 00 01 	movb   $0x1,0x20fcc6(%rip)        # 614540 <completed.7241>
  40487a:	f3 c3                	repz retq 
  40487c:	0f 1f 40 00          	nopl   0x0(%rax)

0000000000404880 <frame_dummy>:
  404880:	bf 20 39 61 00       	mov    $0x613920,%edi
  404885:	48 83 3f 00          	cmpq   $0x0,(%rdi)
  404889:	75 05                	jne    404890 <frame_dummy+0x10>
  40488b:	eb 93                	jmp    404820 <register_tm_clones>
  40488d:	0f 1f 00             	nopl   (%rax)
  404890:	b8 00 00 00 00       	mov    $0x0,%eax
  404895:	48 85 c0             	test   %rax,%rax
  404898:	74 f1                	je     40488b <frame_dummy+0xb>
  40489a:	55                   	push   %rbp
  40489b:	48 89 e5             	mov    %rsp,%rbp
  40489e:	ff d0                	callq  *%rax
  4048a0:	5d                   	pop    %rbp
  4048a1:	e9 7a ff ff ff       	jmpq   404820 <register_tm_clones>
  4048a6:	90                   	nop
  4048a7:	90                   	nop
  4048a8:	90                   	nop
  4048a9:	90                   	nop
  4048aa:	90                   	nop
  4048ab:	90                   	nop
  4048ac:	90                   	nop
  4048ad:	90                   	nop
  4048ae:	90                   	nop
  4048af:	90                   	nop

00000000004048b0 <_ZN6rocket6Config4loadEPKc>:

namespace rocket
{

bool Config::load(const char* file)
{
  4048b0:	41 57                	push   %r15
  4048b2:	41 56                	push   %r14
  4048b4:	41 55                	push   %r13
  4048b6:	41 54                	push   %r12
  4048b8:	55                   	push   %rbp
  4048b9:	53                   	push   %rbx
  4048ba:	48 81 ec 68 05 00 00 	sub    $0x568,%rsp
	  void
	  _M_initialize()
	  {
	    this->_M_header._M_color = _S_red;
	    this->_M_header._M_parent = 0;
	    this->_M_header._M_left = &this->_M_header;
  4048c1:	48 8d 84 24 c0 03 00 	lea    0x3c0(%rsp),%rax
  4048c8:	00 
    ConfigReader cr;

    if (!cr.Load(file))
  4048c9:	48 8d 9c 24 80 00 00 	lea    0x80(%rsp),%rbx
  4048d0:	00 

namespace rocket
{

bool Config::load(const char* file)
{
  4048d1:	48 89 7c 24 18       	mov    %rdi,0x18(%rsp)
	  _Rb_tree_node_base 	_M_header;
	  size_type 		_M_node_count; // Keeps track of size of tree.

	  _Rb_tree_impl()
	  : _Node_allocator(), _M_key_compare(), _M_header(),
	    _M_node_count(0)
  4048d6:	c7 84 24 c8 03 00 00 	movl   $0x0,0x3c8(%rsp)
  4048dd:	00 00 00 00 
  4048e1:	48 c7 84 24 d0 03 00 	movq   $0x0,0x3d0(%rsp)
  4048e8:	00 00 00 00 00 
	  void
	  _M_initialize()
	  {
	    this->_M_header._M_color = _S_red;
	    this->_M_header._M_parent = 0;
	    this->_M_header._M_left = &this->_M_header;
  4048ed:	49 89 c6             	mov    %rax,%r14
  4048f0:	48 89 44 24 08       	mov    %rax,0x8(%rsp)
  4048f5:	48 8d 84 24 c8 03 00 	lea    0x3c8(%rsp),%rax
  4048fc:	00 
    ConfigReader cr;

    if (!cr.Load(file))
  4048fd:	48 89 df             	mov    %rbx,%rdi
	  _Rb_tree_node_base 	_M_header;
	  size_type 		_M_node_count; // Keeps track of size of tree.

	  _Rb_tree_impl()
	  : _Node_allocator(), _M_key_compare(), _M_header(),
	    _M_node_count(0)
  404900:	48 c7 84 24 e8 03 00 	movq   $0x0,0x3e8(%rsp)
  404907:	00 00 00 00 00 
	  void
	  _M_initialize()
	  {
	    this->_M_header._M_color = _S_red;
	    this->_M_header._M_parent = 0;
	    this->_M_header._M_left = &this->_M_header;
  40490c:	48 89 84 24 d8 03 00 	mov    %rax,0x3d8(%rsp)
  404913:	00 
	    this->_M_header._M_right = &this->_M_header;
  404914:	48 89 84 24 e0 03 00 	mov    %rax,0x3e0(%rsp)
  40491b:	00 
  40491c:	48 8d 84 24 b0 03 00 	lea    0x3b0(%rsp),%rax
  404923:	00 
  404924:	48 89 c2             	mov    %rax,%rdx
  404927:	48 89 44 24 10       	mov    %rax,0x10(%rsp)
  40492c:	e8 ef f4 ff ff       	callq  403e20 <_ZNSsC1EPKcRKSaIcE@plt>
  404931:	48 89 de             	mov    %rbx,%rsi
  404934:	4c 89 f7             	mov    %r14,%rdi
  404937:	e8 64 4b 00 00       	callq  4094a0 <_ZN6rocket12ConfigReader4LoadERKSs>
  40493c:	88 44 24 4f          	mov    %al,0x4f(%rsp)
      // Data Members (private):
      mutable _Alloc_hider	_M_dataplus;

      _CharT*
      _M_data() const _GLIBCXX_NOEXCEPT
      { return  _M_dataplus._M_p; }
  404940:	48 8b 84 24 80 00 00 	mov    0x80(%rsp),%rax
  404947:	00 

	void
	_M_dispose(const _Alloc& __a) _GLIBCXX_NOEXCEPT
	{
#if _GLIBCXX_FULLY_DYNAMIC_STRING == 0
	  if (__builtin_expect(this != &_S_empty_rep(), false))
  404948:	48 8b 1d 11 f6 20 00 	mov    0x20f611(%rip),%rbx        # 613f60 <_DYNAMIC+0x2d8>
      _M_data(_CharT* __p) _GLIBCXX_NOEXCEPT
      { return (_M_dataplus._M_p = __p); }

      _Rep*
      _M_rep() const _GLIBCXX_NOEXCEPT
      { return &((reinterpret_cast<_Rep*> (_M_data()))[-1]); }
  40494f:	48 8d 78 e8          	lea    -0x18(%rax),%rdi

	void
	_M_dispose(const _Alloc& __a) _GLIBCXX_NOEXCEPT
	{
#if _GLIBCXX_FULLY_DYNAMIC_STRING == 0
	  if (__builtin_expect(this != &_S_empty_rep(), false))
  404953:	48 39 df             	cmp    %rbx,%rdi
  404956:	0f 85 7c 20 00 00    	jne    4069d8 <_ZN6rocket6Config4loadEPKc+0x2128>
  40495c:	80 7c 24 4f 00       	cmpb   $0x0,0x4f(%rsp)
  404961:	0f 84 91 1d 00 00    	je     4066f8 <_ZN6rocket6Config4loadEPKc+0x1e48>
    {
        return false;
    }

    // log config
    std::string level = cr.GetString("log", "level", "debug");
  404967:	48 8d 84 24 c0 00 00 	lea    0xc0(%rsp),%rax
  40496e:	00 
  40496f:	48 8b 54 24 10       	mov    0x10(%rsp),%rdx
  404974:	48 8d 35 09 ba 00 00 	lea    0xba09(%rip),%rsi        # 410384 <_IO_stdin_used+0x4>
  40497b:	48 89 c7             	mov    %rax,%rdi
  40497e:	49 89 c6             	mov    %rax,%r14
  404981:	48 89 44 24 60       	mov    %rax,0x60(%rsp)
  404986:	e8 95 f4 ff ff       	callq  403e20 <_ZNSsC1EPKcRKSaIcE@plt>
  40498b:	48 8d 84 24 a0 03 00 	lea    0x3a0(%rsp),%rax
  404992:	00 
  404993:	4c 8d a4 24 b0 00 00 	lea    0xb0(%rsp),%r12
  40499a:	00 
  40499b:	48 8d 35 e8 b9 00 00 	lea    0xb9e8(%rip),%rsi        # 41038a <_IO_stdin_used+0xa>
  4049a2:	48 89 c2             	mov    %rax,%rdx
  4049a5:	4c 89 e7             	mov    %r12,%rdi
  4049a8:	48 89 44 24 38       	mov    %rax,0x38(%rsp)
  4049ad:	e8 6e f4 ff ff       	callq  403e20 <_ZNSsC1EPKcRKSaIcE@plt>
  4049b2:	48 8d 84 24 90 03 00 	lea    0x390(%rsp),%rax
  4049b9:	00 
  4049ba:	48 8d ac 24 a0 00 00 	lea    0xa0(%rsp),%rbp
  4049c1:	00 
  4049c2:	48 8d 35 dd b9 00 00 	lea    0xb9dd(%rip),%rsi        # 4103a6 <_IO_stdin_used+0x26>
  4049c9:	48 89 c2             	mov    %rax,%rdx
  4049cc:	48 89 ef             	mov    %rbp,%rdi
  4049cf:	48 89 44 24 30       	mov    %rax,0x30(%rsp)
  4049d4:	e8 47 f4 ff ff       	callq  403e20 <_ZNSsC1EPKcRKSaIcE@plt>
  4049d9:	4c 8d ac 24 90 00 00 	lea    0x90(%rsp),%r13
  4049e0:	00 
  4049e1:	48 8b 74 24 08       	mov    0x8(%rsp),%rsi
  4049e6:	4d 89 f0             	mov    %r14,%r8
  4049e9:	4c 89 e1             	mov    %r12,%rcx
  4049ec:	48 89 ea             	mov    %rbp,%rdx
  4049ef:	4c 89 ef             	mov    %r13,%rdi
  4049f2:	e8 99 56 00 00       	callq  40a090 <_ZN6rocket12ConfigReader9GetStringERKSsS2_S2_>
      // Data Members (private):
      mutable _Alloc_hider	_M_dataplus;

      _CharT*
      _M_data() const _GLIBCXX_NOEXCEPT
      { return  _M_dataplus._M_p; }
  4049f7:	48 8b 84 24 a0 00 00 	mov    0xa0(%rsp),%rax
  4049fe:	00 
      _M_data(_CharT* __p) _GLIBCXX_NOEXCEPT
      { return (_M_dataplus._M_p = __p); }

      _Rep*
      _M_rep() const _GLIBCXX_NOEXCEPT
      { return &((reinterpret_cast<_Rep*> (_M_data()))[-1]); }
  4049ff:	48 8d 78 e8          	lea    -0x18(%rax),%rdi

	void
	_M_dispose(const _Alloc& __a) _GLIBCXX_NOEXCEPT
	{
#if _GLIBCXX_FULLY_DYNAMIC_STRING == 0
	  if (__builtin_expect(this != &_S_empty_rep(), false))
  404a03:	48 39 df             	cmp    %rbx,%rdi
  404a06:	0f 85 34 25 00 00    	jne    406f40 <_ZN6rocket6Config4loadEPKc+0x2690>
      // Data Members (private):
      mutable _Alloc_hider	_M_dataplus;

      _CharT*
      _M_data() const _GLIBCXX_NOEXCEPT
      { return  _M_dataplus._M_p; }
  404a0c:	48 8b 84 24 b0 00 00 	mov    0xb0(%rsp),%rax
  404a13:	00 
      _M_data(_CharT* __p) _GLIBCXX_NOEXCEPT
      { return (_M_dataplus._M_p = __p); }

      _Rep*
      _M_rep() const _GLIBCXX_NOEXCEPT
      { return &((reinterpret_cast<_Rep*> (_M_data()))[-1]); }
  404a14:	48 8d 78 e8          	lea    -0x18(%rax),%rdi

	void
	_M_dispose(const _Alloc& __a) _GLIBCXX_NOEXCEPT
	{
#if _GLIBCXX_FULLY_DYNAMIC_STRING == 0
	  if (__builtin_expect(this != &_S_empty_rep(), false))
  404a18:	48 39 df             	cmp    %rbx,%rdi
  404a1b:	0f 85 0f 21 00 00    	jne    406b30 <_ZN6rocket6Config4loadEPKc+0x2280>
      // Data Members (private):
      mutable _Alloc_hider	_M_dataplus;

      _CharT*
      _M_data() const _GLIBCXX_NOEXCEPT
      { return  _M_dataplus._M_p; }
  404a21:	48 8b 84 24 c0 00 00 	mov    0xc0(%rsp),%rax
  404a28:	00 
      _M_data(_CharT* __p) _GLIBCXX_NOEXCEPT
      { return (_M_dataplus._M_p = __p); }

      _Rep*
      _M_rep() const _GLIBCXX_NOEXCEPT
      { return &((reinterpret_cast<_Rep*> (_M_data()))[-1]); }
  404a29:	48 8d 78 e8          	lea    -0x18(%rax),%rdi

	void
	_M_dispose(const _Alloc& __a) _GLIBCXX_NOEXCEPT
	{
#if _GLIBCXX_FULLY_DYNAMIC_STRING == 0
	  if (__builtin_expect(this != &_S_empty_rep(), false))
  404a2d:	48 39 df             	cmp    %rbx,%rdi
  404a30:	0f 85 3a 21 00 00    	jne    406b70 <_ZN6rocket6Config4loadEPKc+0x22c0>
    std::string rotate = cr.GetString("log", "rotate", "daily");
  404a36:	48 8d 84 24 00 01 00 	lea    0x100(%rsp),%rax
  404a3d:	00 
  404a3e:	48 8b 54 24 10       	mov    0x10(%rsp),%rdx
  404a43:	48 8d 35 46 b9 00 00 	lea    0xb946(%rip),%rsi        # 410390 <_IO_stdin_used+0x10>
  404a4a:	48 89 c7             	mov    %rax,%rdi
  404a4d:	49 89 c7             	mov    %rax,%r15
  404a50:	48 89 44 24 68       	mov    %rax,0x68(%rsp)
  404a55:	e8 c6 f3 ff ff       	callq  403e20 <_ZNSsC1EPKcRKSaIcE@plt>
  404a5a:	4c 8d b4 24 f0 00 00 	lea    0xf0(%rsp),%r14
  404a61:	00 
  404a62:	48 8b 54 24 38       	mov    0x38(%rsp),%rdx
  404a67:	48 8d 35 28 b9 00 00 	lea    0xb928(%rip),%rsi        # 410396 <_IO_stdin_used+0x16>
  404a6e:	4c 89 f7             	mov    %r14,%rdi
  404a71:	e8 aa f3 ff ff       	callq  403e20 <_ZNSsC1EPKcRKSaIcE@plt>
  404a76:	48 8d ac 24 e0 00 00 	lea    0xe0(%rsp),%rbp
  404a7d:	00 
  404a7e:	48 8b 54 24 30       	mov    0x30(%rsp),%rdx
  404a83:	48 8d 35 1c b9 00 00 	lea    0xb91c(%rip),%rsi        # 4103a6 <_IO_stdin_used+0x26>
  404a8a:	48 89 ef             	mov    %rbp,%rdi
  404a8d:	e8 8e f3 ff ff       	callq  403e20 <_ZNSsC1EPKcRKSaIcE@plt>
  404a92:	4c 8d a4 24 d0 00 00 	lea    0xd0(%rsp),%r12
  404a99:	00 
  404a9a:	48 8b 74 24 08       	mov    0x8(%rsp),%rsi
  404a9f:	4d 89 f8             	mov    %r15,%r8
  404aa2:	4c 89 f1             	mov    %r14,%rcx
  404aa5:	48 89 ea             	mov    %rbp,%rdx
  404aa8:	4c 89 e7             	mov    %r12,%rdi
  404aab:	e8 e0 55 00 00       	callq  40a090 <_ZN6rocket12ConfigReader9GetStringERKSsS2_S2_>
      // Data Members (private):
      mutable _Alloc_hider	_M_dataplus;

      _CharT*
      _M_data() const _GLIBCXX_NOEXCEPT
      { return  _M_dataplus._M_p; }
  404ab0:	48 8b 84 24 e0 00 00 	mov    0xe0(%rsp),%rax
  404ab7:	00 
      _M_data(_CharT* __p) _GLIBCXX_NOEXCEPT
      { return (_M_dataplus._M_p = __p); }

      _Rep*
      _M_rep() const _GLIBCXX_NOEXCEPT
      { return &((reinterpret_cast<_Rep*> (_M_data()))[-1]); }
  404ab8:	48 8d 78 e8          	lea    -0x18(%rax),%rdi

	void
	_M_dispose(const _Alloc& __a) _GLIBCXX_NOEXCEPT
	{
#if _GLIBCXX_FULLY_DYNAMIC_STRING == 0
	  if (__builtin_expect(this != &_S_empty_rep(), false))
  404abc:	48 39 df             	cmp    %rbx,%rdi
  404abf:	0f 85 eb 20 00 00    	jne    406bb0 <_ZN6rocket6Config4loadEPKc+0x2300>
      // Data Members (private):
      mutable _Alloc_hider	_M_dataplus;

      _CharT*
      _M_data() const _GLIBCXX_NOEXCEPT
      { return  _M_dataplus._M_p; }
  404ac5:	48 8b 84 24 f0 00 00 	mov    0xf0(%rsp),%rax
  404acc:	00 
      _M_data(_CharT* __p) _GLIBCXX_NOEXCEPT
      { return (_M_dataplus._M_p = __p); }

      _Rep*
      _M_rep() const _GLIBCXX_NOEXCEPT
      { return &((reinterpret_cast<_Rep*> (_M_data()))[-1]); }
  404acd:	48 8d 78 e8          	lea    -0x18(%rax),%rdi

	void
	_M_dispose(const _Alloc& __a) _GLIBCXX_NOEXCEPT
	{
#if _GLIBCXX_FULLY_DYNAMIC_STRING == 0
	  if (__builtin_expect(this != &_S_empty_rep(), false))
  404ad1:	48 39 df             	cmp    %rbx,%rdi
  404ad4:	0f 85 26 24 00 00    	jne    406f00 <_ZN6rocket6Config4loadEPKc+0x2650>
      // Data Members (private):
      mutable _Alloc_hider	_M_dataplus;

      _CharT*
      _M_data() const _GLIBCXX_NOEXCEPT
      { return  _M_dataplus._M_p; }
  404ada:	48 8b 84 24 00 01 00 	mov    0x100(%rsp),%rax
  404ae1:	00 
      _M_data(_CharT* __p) _GLIBCXX_NOEXCEPT
      { return (_M_dataplus._M_p = __p); }

      _Rep*
      _M_rep() const _GLIBCXX_NOEXCEPT
      { return &((reinterpret_cast<_Rep*> (_M_data()))[-1]); }
  404ae2:	48 8d 78 e8          	lea    -0x18(%rax),%rdi

	void
	_M_dispose(const _Alloc& __a) _GLIBCXX_NOEXCEPT
	{
#if _GLIBCXX_FULLY_DYNAMIC_STRING == 0
	  if (__builtin_expect(this != &_S_empty_rep(), false))
  404ae6:	48 39 df             	cmp    %rbx,%rdi
  404ae9:	0f 85 91 26 00 00    	jne    407180 <_ZN6rocket6Config4loadEPKc+0x28d0>
    _log_cfg.level = _log_cfg.parseLevel(level);
  404aef:	4c 8b 74 24 18       	mov    0x18(%rsp),%r14
  404af4:	4c 89 ee             	mov    %r13,%rsi
  404af7:	49 8d 6e 30          	lea    0x30(%r14),%rbp
  404afb:	48 89 ef             	mov    %rbp,%rdi
  404afe:	e8 2d 6f 00 00       	callq  40ba30 <_ZN9LogConfig10parseLevelERKSs>
  404b03:	41 89 46 38          	mov    %eax,0x38(%r14)
    _log_cfg.rotate = _log_cfg.parseRotate(rotate);
  404b07:	4c 89 e6             	mov    %r12,%rsi
  404b0a:	48 89 ef             	mov    %rbp,%rdi
  404b0d:	e8 9e 6f 00 00       	callq  40bab0 <_ZN9LogConfig11parseRotateERKSs>
    _log_cfg.file = cr.GetString("log", "file", "./log/ff.log");
  404b12:	4c 8d bc 24 30 01 00 	lea    0x130(%rsp),%r15
  404b19:	00 
  404b1a:	48 8b 54 24 10       	mov    0x10(%rsp),%rdx
  404b1f:	48 8d 35 77 b8 00 00 	lea    0xb877(%rip),%rsi        # 41039d <_IO_stdin_used+0x1d>

    // log config
    std::string level = cr.GetString("log", "level", "debug");
    std::string rotate = cr.GetString("log", "rotate", "daily");
    _log_cfg.level = _log_cfg.parseLevel(level);
    _log_cfg.rotate = _log_cfg.parseRotate(rotate);
  404b26:	41 89 46 3c          	mov    %eax,0x3c(%r14)
    _log_cfg.file = cr.GetString("log", "file", "./log/ff.log");
  404b2a:	4c 89 ff             	mov    %r15,%rdi
  404b2d:	e8 ee f2 ff ff       	callq  403e20 <_ZNSsC1EPKcRKSaIcE@plt>
  404b32:	4c 8d b4 24 20 01 00 	lea    0x120(%rsp),%r14
  404b39:	00 
  404b3a:	48 8b 54 24 38       	mov    0x38(%rsp),%rdx
  404b3f:	48 8d 35 64 b8 00 00 	lea    0xb864(%rip),%rsi        # 4103aa <_IO_stdin_used+0x2a>
  404b46:	4c 89 f7             	mov    %r14,%rdi
  404b49:	e8 d2 f2 ff ff       	callq  403e20 <_ZNSsC1EPKcRKSaIcE@plt>
  404b4e:	4c 8d ac 24 10 01 00 	lea    0x110(%rsp),%r13
  404b55:	00 
  404b56:	48 8b 54 24 30       	mov    0x30(%rsp),%rdx
  404b5b:	48 8d 35 44 b8 00 00 	lea    0xb844(%rip),%rsi        # 4103a6 <_IO_stdin_used+0x26>
  404b62:	4c 89 ef             	mov    %r13,%rdi
  404b65:	e8 b6 f2 ff ff       	callq  403e20 <_ZNSsC1EPKcRKSaIcE@plt>
  404b6a:	4c 8d a4 24 40 01 00 	lea    0x140(%rsp),%r12
  404b71:	00 
  404b72:	48 8b 74 24 08       	mov    0x8(%rsp),%rsi
  404b77:	4d 89 f8             	mov    %r15,%r8
  404b7a:	4c 89 f1             	mov    %r14,%rcx
  404b7d:	4c 89 ea             	mov    %r13,%rdx
  404b80:	4c 89 e7             	mov    %r12,%rdi
  404b83:	e8 08 55 00 00       	callq  40a090 <_ZN6rocket12ConfigReader9GetStringERKSsS2_S2_>
      // PR 58265, this should be noexcept.
      basic_string&
      operator=(basic_string&& __str)
      {
	// NB: DR 1204.
	this->swap(__str);
  404b88:	4c 89 e6             	mov    %r12,%rsi
  404b8b:	48 89 ef             	mov    %rbp,%rdi
  404b8e:	e8 7d f6 ff ff       	callq  404210 <_ZNSs4swapERSs@plt>
      // Data Members (private):
      mutable _Alloc_hider	_M_dataplus;

      _CharT*
      _M_data() const _GLIBCXX_NOEXCEPT
      { return  _M_dataplus._M_p; }
  404b93:	48 8b 84 24 40 01 00 	mov    0x140(%rsp),%rax
  404b9a:	00 
      _M_data(_CharT* __p) _GLIBCXX_NOEXCEPT
      { return (_M_dataplus._M_p = __p); }

      _Rep*
      _M_rep() const _GLIBCXX_NOEXCEPT
      { return &((reinterpret_cast<_Rep*> (_M_data()))[-1]); }
  404b9b:	48 8d 78 e8          	lea    -0x18(%rax),%rdi

	void
	_M_dispose(const _Alloc& __a) _GLIBCXX_NOEXCEPT
	{
#if _GLIBCXX_FULLY_DYNAMIC_STRING == 0
	  if (__builtin_expect(this != &_S_empty_rep(), false))
  404b9f:	48 39 df             	cmp    %rbx,%rdi
  404ba2:	0f 85 18 26 00 00    	jne    4071c0 <_ZN6rocket6Config4loadEPKc+0x2910>
      // Data Members (private):
      mutable _Alloc_hider	_M_dataplus;

      _CharT*
      _M_data() const _GLIBCXX_NOEXCEPT
      { return  _M_dataplus._M_p; }
  404ba8:	48 8b 84 24 10 01 00 	mov    0x110(%rsp),%rax
  404baf:	00 
      _M_data(_CharT* __p) _GLIBCXX_NOEXCEPT
      { return (_M_dataplus._M_p = __p); }

      _Rep*
      _M_rep() const _GLIBCXX_NOEXCEPT
      { return &((reinterpret_cast<_Rep*> (_M_data()))[-1]); }
  404bb0:	48 8d 78 e8          	lea    -0x18(%rax),%rdi

	void
	_M_dispose(const _Alloc& __a) _GLIBCXX_NOEXCEPT
	{
#if _GLIBCXX_FULLY_DYNAMIC_STRING == 0
	  if (__builtin_expect(this != &_S_empty_rep(), false))
  404bb4:	48 39 df             	cmp    %rbx,%rdi
  404bb7:	0f 85 43 26 00 00    	jne    407200 <_ZN6rocket6Config4loadEPKc+0x2950>
      // Data Members (private):
      mutable _Alloc_hider	_M_dataplus;

      _CharT*
      _M_data() const _GLIBCXX_NOEXCEPT
      { return  _M_dataplus._M_p; }
  404bbd:	48 8b 84 24 20 01 00 	mov    0x120(%rsp),%rax
  404bc4:	00 
      _M_data(_CharT* __p) _GLIBCXX_NOEXCEPT
      { return (_M_dataplus._M_p = __p); }

      _Rep*
      _M_rep() const _GLIBCXX_NOEXCEPT
      { return &((reinterpret_cast<_Rep*> (_M_data()))[-1]); }
  404bc5:	48 8d 78 e8          	lea    -0x18(%rax),%rdi

	void
	_M_dispose(const _Alloc& __a) _GLIBCXX_NOEXCEPT
	{
#if _GLIBCXX_FULLY_DYNAMIC_STRING == 0
	  if (__builtin_expect(this != &_S_empty_rep(), false))
  404bc9:	48 39 df             	cmp    %rbx,%rdi
  404bcc:	0f 85 6e 26 00 00    	jne    407240 <_ZN6rocket6Config4loadEPKc+0x2990>
      // Data Members (private):
      mutable _Alloc_hider	_M_dataplus;

      _CharT*
      _M_data() const _GLIBCXX_NOEXCEPT
      { return  _M_dataplus._M_p; }
  404bd2:	48 8b 84 24 30 01 00 	mov    0x130(%rsp),%rax
  404bd9:	00 
      _M_data(_CharT* __p) _GLIBCXX_NOEXCEPT
      { return (_M_dataplus._M_p = __p); }

      _Rep*
      _M_rep() const _GLIBCXX_NOEXCEPT
      { return &((reinterpret_cast<_Rep*> (_M_data()))[-1]); }
  404bda:	48 8d 78 e8          	lea    -0x18(%rax),%rdi

	void
	_M_dispose(const _Alloc& __a) _GLIBCXX_NOEXCEPT
	{
#if _GLIBCXX_FULLY_DYNAMIC_STRING == 0
	  if (__builtin_expect(this != &_S_empty_rep(), false))
  404bde:	48 39 df             	cmp    %rbx,%rdi
  404be1:	0f 85 99 26 00 00    	jne    407280 <_ZN6rocket6Config4loadEPKc+0x29d0>
    _log_cfg.size = cr.GetNumber<size_t>("log", "size", 104857600);
  404be7:	4c 8d a4 24 60 01 00 	lea    0x160(%rsp),%r12
  404bee:	00 
  404bef:	48 8b 54 24 30       	mov    0x30(%rsp),%rdx
  404bf4:	48 8d 35 b4 b7 00 00 	lea    0xb7b4(%rip),%rsi        # 4103af <_IO_stdin_used+0x2f>
  404bfb:	4c 89 e7             	mov    %r12,%rdi
  404bfe:	e8 1d f2 ff ff       	callq  403e20 <_ZNSsC1EPKcRKSaIcE@plt>
  404c03:	48 8d 84 24 80 03 00 	lea    0x380(%rsp),%rax
  404c0a:	00 
  404c0b:	4c 8d ac 24 50 01 00 	lea    0x150(%rsp),%r13
  404c12:	00 
  404c13:	48 8d 35 8c b7 00 00 	lea    0xb78c(%rip),%rsi        # 4103a6 <_IO_stdin_used+0x26>
  404c1a:	48 89 c2             	mov    %rax,%rdx
  404c1d:	4c 89 ef             	mov    %r13,%rdi
  404c20:	48 89 44 24 40       	mov    %rax,0x40(%rsp)
  404c25:	e8 f6 f1 ff ff       	callq  403e20 <_ZNSsC1EPKcRKSaIcE@plt>
  template<typename _CharT, typename _Traits, typename _Alloc>
    inline basic_string<_CharT, _Traits, _Alloc>
    operator+(const basic_string<_CharT, _Traits, _Alloc>& __lhs,
	     const _CharT* __rhs)
    {
      basic_string<_CharT, _Traits, _Alloc> __str(__lhs);
  404c2a:	48 8d ac 24 c0 02 00 	lea    0x2c0(%rsp),%rbp
  404c31:	00 
  404c32:	4c 89 ee             	mov    %r13,%rsi
  404c35:	48 89 ef             	mov    %rbp,%rdi
  404c38:	e8 83 f0 ff ff       	callq  403cc0 <_ZNSsC1ERKSs@plt>
       */
      basic_string&
      append(const _CharT* __s)
      {
	__glibcxx_requires_string(__s);
	return this->append(__s, traits_type::length(__s));
  404c3d:	48 8d 35 70 b7 00 00 	lea    0xb770(%rip),%rsi        # 4103b4 <_IO_stdin_used+0x34>
  404c44:	ba 01 00 00 00       	mov    $0x1,%edx
  404c49:	48 89 ef             	mov    %rbp,%rdi
  404c4c:	e8 ff ed ff ff       	callq  403a50 <_ZNSs6appendEPKcm@plt>
#if __cplusplus >= 201103L
  template<typename _CharT, typename _Traits, typename _Alloc>
    inline basic_string<_CharT, _Traits, _Alloc>
    operator+(basic_string<_CharT, _Traits, _Alloc>&& __lhs,
	      const basic_string<_CharT, _Traits, _Alloc>& __rhs)
    { return std::move(__lhs.append(__rhs)); }
  404c51:	4c 89 e6             	mov    %r12,%rsi
  404c54:	48 89 ef             	mov    %rbp,%rdi
  404c57:	e8 e4 f5 ff ff       	callq  404240 <_ZNSs6appendERKSs@plt>
	_CharT*
	_M_clone(const _Alloc&, size_type __res = 0);
      };

      // Use empty-base optimization: http://www.cantrip.org/emptyopt.html
      struct _Alloc_hider : _Alloc
  404c5c:	48 8b 10             	mov    (%rax),%rdx
  404c5f:	48 89 94 24 b0 02 00 	mov    %rdx,0x2b0(%rsp)
  404c66:	00 
      _M_data() const _GLIBCXX_NOEXCEPT
      { return  _M_dataplus._M_p; }

      _CharT*
      _M_data(_CharT* __p) _GLIBCXX_NOEXCEPT
      { return (_M_dataplus._M_p = __p); }
  404c67:	48 8d 53 18          	lea    0x18(%rbx),%rdx
  404c6b:	48 89 10             	mov    %rdx,(%rax)
      // Data Members (private):
      mutable _Alloc_hider	_M_dataplus;

      _CharT*
      _M_data() const _GLIBCXX_NOEXCEPT
      { return  _M_dataplus._M_p; }
  404c6e:	48 8b 84 24 c0 02 00 	mov    0x2c0(%rsp),%rax
  404c75:	00 
      _M_data(_CharT* __p) _GLIBCXX_NOEXCEPT
      { return (_M_dataplus._M_p = __p); }

      _Rep*
      _M_rep() const _GLIBCXX_NOEXCEPT
      { return &((reinterpret_cast<_Rep*> (_M_data()))[-1]); }
  404c76:	48 8d 78 e8          	lea    -0x18(%rax),%rdi

	void
	_M_dispose(const _Alloc& __a) _GLIBCXX_NOEXCEPT
	{
#if _GLIBCXX_FULLY_DYNAMIC_STRING == 0
	  if (__builtin_expect(this != &_S_empty_rep(), false))
  404c7a:	48 39 df             	cmp    %rbx,%rdi
  404c7d:	0f 85 6d 1e 00 00    	jne    406af0 <_ZN6rocket6Config4loadEPKc+0x2240>
       *  pointing to the sought after %pair.  If unsuccessful it returns the
       *  past-the-end ( @c end() ) iterator.
       */
      iterator
      find(const key_type& __x)
      { return _M_t.find(__x); }
  404c83:	4c 8b 74 24 08       	mov    0x8(%rsp),%r14
  404c88:	48 8d 84 24 b0 02 00 	lea    0x2b0(%rsp),%rax
  404c8f:	00 
  404c90:	48 89 c6             	mov    %rax,%rsi
  404c93:	48 89 44 24 20       	mov    %rax,0x20(%rsp)
  404c98:	4c 89 f7             	mov    %r14,%rdi
                                     const string& key,
                                     T default_value = 0)
    {
        string name = section + "." + key;

        if (_m.find(name) != _m.end())
  404c9b:	4d 8d 76 08          	lea    0x8(%r14),%r14
  404c9f:	e8 5c 39 00 00       	callq  408600 <_ZNSt8_Rb_treeISsSt4pairIKSsSsESt10_Select1stIS2_ESt4lessISsESaIS2_EE4findERS1_>
  404ca4:	49 39 c6             	cmp    %rax,%r14
  404ca7:	0f 84 53 1c 00 00    	je     406900 <_ZN6rocket6Config4loadEPKc+0x2050>
  404cad:	4c 8b bc 24 d0 03 00 	mov    0x3d0(%rsp),%r15
  404cb4:	00 
		      _Compare, _Alloc>::iterator
    _Rb_tree<_Key, _Val, _KeyOfValue, _Compare, _Alloc>::
    _M_lower_bound(_Link_type __x, _Link_type __y,
		   const _Key& __k)
    {
      while (__x != 0)
  404cb5:	4d 85 ff             	test   %r15,%r15
  404cb8:	0f 84 05 1c 00 00    	je     4068c3 <_ZN6rocket6Config4loadEPKc+0x2013>
  404cbe:	48 8b ac 24 b0 02 00 	mov    0x2b0(%rsp),%rbp
  404cc5:	00 
  404cc6:	4c 8b 65 e8          	mov    -0x18(%rbp),%r12
  404cca:	eb 17                	jmp    404ce3 <_ZN6rocket6Config4loadEPKc+0x433>
  404ccc:	0f 1f 40 00          	nopl   0x0(%rax)
	if (__d > __gnu_cxx::__numeric_traits<int>::__max)
	  return __gnu_cxx::__numeric_traits<int>::__max;
	else if (__d < __gnu_cxx::__numeric_traits<int>::__min)
	  return __gnu_cxx::__numeric_traits<int>::__min;
	else
	  return int(__d);
  404cd0:	44 89 e8             	mov    %r13d,%eax
	if (!_M_impl._M_key_compare(_S_key(__x), __k))
  404cd3:	85 c0                	test   %eax,%eax
  404cd5:	78 3f                	js     404d16 <_ZN6rocket6Config4loadEPKc+0x466>
		      _Compare, _Alloc>::iterator
    _Rb_tree<_Key, _Val, _KeyOfValue, _Compare, _Alloc>::
    _M_lower_bound(_Link_type __x, _Link_type __y,
		   const _Key& __k)
    {
      while (__x != 0)
  404cd7:	4d 89 fe             	mov    %r15,%r14
	if (!_M_impl._M_key_compare(_S_key(__x), __k))
	  __y = __x, __x = _S_left(__x);
  404cda:	4d 8b 7f 10          	mov    0x10(%r15),%r15
		      _Compare, _Alloc>::iterator
    _Rb_tree<_Key, _Val, _KeyOfValue, _Compare, _Alloc>::
    _M_lower_bound(_Link_type __x, _Link_type __y,
		   const _Key& __k)
    {
      while (__x != 0)
  404cde:	4d 85 ff             	test   %r15,%r15
  404ce1:	74 3c                	je     404d1f <_ZN6rocket6Config4loadEPKc+0x46f>
      // Data Members (private):
      mutable _Alloc_hider	_M_dataplus;

      _CharT*
      _M_data() const _GLIBCXX_NOEXCEPT
      { return  _M_dataplus._M_p; }
  404ce3:	49 8b 7f 20          	mov    0x20(%r15),%rdi
  404ce7:	4c 89 e2             	mov    %r12,%rdx
		< static_cast<unsigned char>(__c2));
      }

      static int
      compare(const char_type* __s1, const char_type* __s2, size_t __n)
      { return __builtin_memcmp(__s1, __s2, __n); }
  404cea:	48 89 ee             	mov    %rbp,%rsi
      // Capacity:
      ///  Returns the number of characters in the string, not including any
      ///  null-termination.
      size_type
      size() const _GLIBCXX_NOEXCEPT
      { return _M_rep()->_M_length; }
  404ced:	4c 8b 6f e8          	mov    -0x18(%rdi),%r13
  404cf1:	4d 39 e5             	cmp    %r12,%r13
  404cf4:	49 0f 46 d5          	cmovbe %r13,%rdx
  404cf8:	e8 f3 f2 ff ff       	callq  403ff0 <memcmp@plt>
	const size_type __size = this->size();
	const size_type __osize = __str.size();
	const size_type __len = std::min(__size, __osize);

	int __r = traits_type::compare(_M_data(), __str.data(), __len);
	if (!__r)
  404cfd:	85 c0                	test   %eax,%eax
  404cff:	75 d2                	jne    404cd3 <_ZN6rocket6Config4loadEPKc+0x423>
      { _M_copy(__p, __k1, __k2 - __k1); }

      static int
      _S_compare(size_type __n1, size_type __n2) _GLIBCXX_NOEXCEPT
      {
	const difference_type __d = difference_type(__n1 - __n2);
  404d01:	4d 29 e5             	sub    %r12,%r13

	if (__d > __gnu_cxx::__numeric_traits<int>::__max)
  404d04:	49 81 fd ff ff ff 7f 	cmp    $0x7fffffff,%r13
  404d0b:	7f ca                	jg     404cd7 <_ZN6rocket6Config4loadEPKc+0x427>
	  return __gnu_cxx::__numeric_traits<int>::__max;
	else if (__d < __gnu_cxx::__numeric_traits<int>::__min)
  404d0d:	49 81 fd 00 00 00 80 	cmp    $0xffffffff80000000,%r13
  404d14:	7d ba                	jge    404cd0 <_ZN6rocket6Config4loadEPKc+0x420>
  404d16:	4d 8b 7f 18          	mov    0x18(%r15),%r15
  404d1a:	4d 85 ff             	test   %r15,%r15
  404d1d:	75 c4                	jne    404ce3 <_ZN6rocket6Config4loadEPKc+0x433>
	// concept requirements
	__glibcxx_function_requires(_DefaultConstructibleConcept<mapped_type>)

	iterator __i = lower_bound(__k);
	// __i->first is greater than or equivalent to __k.
	if (__i == end() || key_comp()(__k, (*__i).first))
  404d1f:	48 8b 44 24 08       	mov    0x8(%rsp),%rax
  404d24:	48 83 c0 08          	add    $0x8,%rax
  404d28:	49 39 c6             	cmp    %rax,%r14
  404d2b:	0f 84 92 1b 00 00    	je     4068c3 <_ZN6rocket6Config4loadEPKc+0x2013>
      // Data Members (private):
      mutable _Alloc_hider	_M_dataplus;

      _CharT*
      _M_data() const _GLIBCXX_NOEXCEPT
      { return  _M_dataplus._M_p; }
  404d31:	49 8b 76 20          	mov    0x20(%r14),%rsi
  404d35:	4c 89 e2             	mov    %r12,%rdx
  404d38:	48 89 ef             	mov    %rbp,%rdi
      // Capacity:
      ///  Returns the number of characters in the string, not including any
      ///  null-termination.
      size_type
      size() const _GLIBCXX_NOEXCEPT
      { return _M_rep()->_M_length; }
  404d3b:	4c 8b 6e e8          	mov    -0x18(%rsi),%r13
  404d3f:	4d 39 e5             	cmp    %r12,%r13
  404d42:	49 0f 46 d5          	cmovbe %r13,%rdx
  404d46:	e8 a5 f2 ff ff       	callq  403ff0 <memcmp@plt>
	const size_type __size = this->size();
	const size_type __osize = __str.size();
	const size_type __len = std::min(__size, __osize);

	int __r = traits_type::compare(_M_data(), __str.data(), __len);
	if (!__r)
  404d4b:	85 c0                	test   %eax,%eax
  404d4d:	0f 85 68 1b 00 00    	jne    4068bb <_ZN6rocket6Config4loadEPKc+0x200b>
      { _M_copy(__p, __k1, __k2 - __k1); }

      static int
      _S_compare(size_type __n1, size_type __n2) _GLIBCXX_NOEXCEPT
      {
	const difference_type __d = difference_type(__n1 - __n2);
  404d53:	4c 89 e1             	mov    %r12,%rcx
  404d56:	4c 29 e9             	sub    %r13,%rcx

	if (__d > __gnu_cxx::__numeric_traits<int>::__max)
  404d59:	48 81 f9 ff ff ff 7f 	cmp    $0x7fffffff,%rcx
  404d60:	0f 8e 4a 1b 00 00    	jle    4068b0 <_ZN6rocket6Config4loadEPKc+0x2000>
       *  The default constructor does nothing and is not normally
       *  accessible to users.
      */
      basic_ios()
      : ios_base(), _M_tie(0), _M_fill(char_type()), _M_fill_init(false), 
	_M_streambuf(0), _M_ctype(0), _M_num_put(0), _M_num_get(0)
  404d66:	48 8d ac 24 f0 03 00 	lea    0x3f0(%rsp),%rbp
  404d6d:	00 
  404d6e:	48 8d 7d 60          	lea    0x60(%rbp),%rdi
  404d72:	e8 a9 ed ff ff       	callq  403b20 <_ZNSt8ios_baseC2Ev@plt>
  404d77:	4c 8b 2d 32 f1 20 00 	mov    0x20f132(%rip),%r13        # 613eb0 <_DYNAMIC+0x228>
  404d7e:	c6 84 24 30 05 00 00 	movb   $0x0,0x530(%rsp)
  404d85:	00 
      //@}

    protected:
      basic_istream()
      : _M_gcount(streamsize(0))
      { this->init(0); }
  404d86:	48 89 ef             	mov    %rbp,%rdi
  404d89:	48 c7 84 24 28 05 00 	movq   $0x0,0x528(%rsp)
  404d90:	00 00 00 00 00 
  404d95:	c6 84 24 31 05 00 00 	movb   $0x0,0x531(%rsp)
  404d9c:	00 
  404d9d:	31 f6                	xor    %esi,%esi
  404d9f:	48 c7 84 24 38 05 00 	movq   $0x0,0x538(%rsp)
  404da6:	00 00 00 00 00 
  404dab:	48 c7 84 24 40 05 00 	movq   $0x0,0x540(%rsp)
  404db2:	00 00 00 00 00 
  404db7:	49 8d 45 10          	lea    0x10(%r13),%rax
  404dbb:	48 c7 84 24 48 05 00 	movq   $0x0,0x548(%rsp)
  404dc2:	00 00 00 00 00 
  404dc7:	48 c7 84 24 50 05 00 	movq   $0x0,0x550(%rsp)
  404dce:	00 00 00 00 00 
  404dd3:	48 89 84 24 50 04 00 	mov    %rax,0x450(%rsp)
  404dda:	00 
      seekg(off_type, ios_base::seekdir);
      //@}

    protected:
      basic_istream()
      : _M_gcount(streamsize(0))
  404ddb:	48 8b 05 e6 f0 20 00 	mov    0x20f0e6(%rip),%rax        # 613ec8 <_DYNAMIC+0x240>
  404de2:	4c 8b 78 08          	mov    0x8(%rax),%r15
  404de6:	48 8b 40 10          	mov    0x10(%rax),%rax
  404dea:	48 89 c1             	mov    %rax,%rcx
  404ded:	48 89 44 24 50       	mov    %rax,0x50(%rsp)
  404df2:	49 8b 47 e8          	mov    -0x18(%r15),%rax
  404df6:	4c 89 bc 24 f0 03 00 	mov    %r15,0x3f0(%rsp)
  404dfd:	00 
  404dfe:	48 89 8c 04 f0 03 00 	mov    %rcx,0x3f0(%rsp,%rax,1)
  404e05:	00 
  404e06:	48 c7 84 24 f8 03 00 	movq   $0x0,0x3f8(%rsp)
  404e0d:	00 00 00 00 00 
      { this->init(0); }
  404e12:	49 03 7f e8          	add    -0x18(%r15),%rdi
  404e16:	e8 e5 f0 ff ff       	callq  403f00 <_ZNSt9basic_iosIcSt11char_traitsIcEE4initEPSt15basic_streambufIcS1_E@plt>
       *  string class does its own memory management.
      */
      explicit
      basic_istringstream(const __string_type& __str,
			  ios_base::openmode __mode = ios_base::in)
      : __istream_type(), _M_stringbuf(__str, __mode | ios_base::in)
  404e1b:	4c 8b 25 46 f1 20 00 	mov    0x20f146(%rip),%r12        # 613f68 <_DYNAMIC+0x2e0>
       *  - this is not an error
      */
      basic_streambuf()
      : _M_in_beg(0), _M_in_cur(0), _M_in_end(0), 
      _M_out_beg(0), _M_out_cur(0), _M_out_end(0),
      _M_buf_locale(locale()) 
  404e22:	48 8d 7d 48          	lea    0x48(%rbp),%rdi
  404e26:	48 c7 84 24 08 04 00 	movq   $0x0,0x408(%rsp)
  404e2d:	00 00 00 00 00 
  404e32:	48 c7 84 24 10 04 00 	movq   $0x0,0x410(%rsp)
  404e39:	00 00 00 00 00 
  404e3e:	48 c7 84 24 18 04 00 	movq   $0x0,0x418(%rsp)
  404e45:	00 00 00 00 00 
  404e4a:	48 c7 84 24 20 04 00 	movq   $0x0,0x420(%rsp)
  404e51:	00 00 00 00 00 
  404e56:	48 c7 84 24 28 04 00 	movq   $0x0,0x428(%rsp)
  404e5d:	00 00 00 00 00 
  404e62:	49 8d 44 24 18       	lea    0x18(%r12),%rax
  404e67:	48 c7 84 24 30 04 00 	movq   $0x0,0x430(%rsp)
  404e6e:	00 00 00 00 00 
  404e73:	48 89 84 24 f0 03 00 	mov    %rax,0x3f0(%rsp)
  404e7a:	00 
  404e7b:	49 8d 44 24 40       	lea    0x40(%r12),%rax
  404e80:	48 89 84 24 50 04 00 	mov    %rax,0x450(%rsp)
  404e87:	00 
  404e88:	48 8b 05 c9 f0 20 00 	mov    0x20f0c9(%rip),%rax        # 613f58 <_DYNAMIC+0x2d0>
  404e8f:	48 89 44 24 20       	mov    %rax,0x20(%rsp)
  404e94:	48 83 c0 10          	add    $0x10,%rax
  404e98:	48 89 84 24 00 04 00 	mov    %rax,0x400(%rsp)
  404e9f:	00 
  404ea0:	e8 db ef ff ff       	callq  403e80 <_ZNSt6localeC1Ev@plt>
       *  own default ctor.
      */
      explicit
      basic_stringbuf(const __string_type& __str,
		      ios_base::openmode __mode = ios_base::in | ios_base::out)
      : __streambuf_type(), _M_mode(), _M_string(__str.data(), __str.size())
  404ea5:	48 8b 05 fc ef 20 00 	mov    0x20effc(%rip),%rax        # 613ea8 <_DYNAMIC+0x220>
  404eac:	48 8b 4c 24 10       	mov    0x10(%rsp),%rcx
  404eb1:	48 8d 7d 58          	lea    0x58(%rbp),%rdi
  404eb5:	c7 84 24 40 04 00 00 	movl   $0x0,0x440(%rsp)
  404ebc:	00 00 00 00 
  404ec0:	48 89 44 24 28       	mov    %rax,0x28(%rsp)
  404ec5:	48 83 c0 10          	add    $0x10,%rax
  404ec9:	48 89 84 24 00 04 00 	mov    %rax,0x400(%rsp)
  404ed0:	00 
      // Data Members (private):
      mutable _Alloc_hider	_M_dataplus;

      _CharT*
      _M_data() const _GLIBCXX_NOEXCEPT
      { return  _M_dataplus._M_p; }
  404ed1:	49 8b 76 28          	mov    0x28(%r14),%rsi
  404ed5:	48 8b 56 e8          	mov    -0x18(%rsi),%rdx
  404ed9:	e8 72 ec ff ff       	callq  403b50 <_ZNSsC1EPKcmRKSaIcE@plt>
      {
	_M_mode = __mode;
	__size_type __len = 0;
	if (_M_mode & (ios_base::ate | ios_base::app))
	  __len = _M_string.size();
	_M_sync(const_cast<char_type*>(_M_string.data()), 0, __len);
  404ede:	48 8b b4 24 48 04 00 	mov    0x448(%rsp),%rsi
  404ee5:	00 
  404ee6:	48 8d 7d 10          	lea    0x10(%rbp),%rdi
  404eea:	31 c9                	xor    %ecx,%ecx
  404eec:	31 d2                	xor    %edx,%edx
    protected:
      // Common initialization code goes here.
      void
      _M_stringbuf_init(ios_base::openmode __mode)
      {
	_M_mode = __mode;
  404eee:	c7 84 24 40 04 00 00 	movl   $0x8,0x440(%rsp)
  404ef5:	08 00 00 00 
	__size_type __len = 0;
	if (_M_mode & (ios_base::ate | ios_base::app))
	  __len = _M_string.size();
	_M_sync(const_cast<char_type*>(_M_string.data()), 0, __len);
  404ef9:	e8 b2 f0 ff ff       	callq  403fb0 <_ZNSt15basic_stringbufIcSt11char_traitsIcESaIcEE7_M_syncEPcmm@plt>
      */
      explicit
      basic_istringstream(const __string_type& __str,
			  ios_base::openmode __mode = ios_base::in)
      : __istream_type(), _M_stringbuf(__str, __mode | ios_base::in)
      { this->init(&_M_stringbuf); }
  404efe:	48 8d 75 10          	lea    0x10(%rbp),%rsi
  404f02:	48 8d 7d 60          	lea    0x60(%rbp),%rdi
  404f06:	e8 f5 ef ff ff       	callq  403f00 <_ZNSt9basic_iosIcSt11char_traitsIcEE4initEPSt15basic_streambufIcS1_E@plt>
      operator>>(long& __n)
      { return _M_extract(__n); }

      __istream_type&
      operator>>(unsigned long& __n)
      { return _M_extract(__n); }
  404f0b:	48 8b 74 24 10       	mov    0x10(%rsp),%rsi
  404f10:	48 89 ef             	mov    %rbp,%rdi
        {
            istringstream iss(_m[name]);
            T num = 0;
  404f13:	48 c7 84 24 b0 03 00 	movq   $0x0,0x3b0(%rsp)
  404f1a:	00 00 00 00 00 
  404f1f:	e8 8c eb ff ff       	callq  403ab0 <_ZNSi10_M_extractImEERSiRT_@plt>
       *
       *  The buffer is deallocated by the stringbuf object, not the
       *  formatting stream.
      */
      ~basic_istringstream()
      { }
  404f24:	49 8d 44 24 18       	lea    0x18(%r12),%rax
            iss >> num;
            return num;
  404f29:	4c 8b b4 24 b0 03 00 	mov    0x3b0(%rsp),%r14
  404f30:	00 
  404f31:	48 89 84 24 f0 03 00 	mov    %rax,0x3f0(%rsp)
  404f38:	00 
  404f39:	49 8d 44 24 40       	lea    0x40(%r12),%rax
  404f3e:	48 89 84 24 50 04 00 	mov    %rax,0x450(%rsp)
  404f45:	00 
   *  For this class, open modes (of type @c ios_base::openmode) have
   *  @c in set if the input sequence can be read, and @c out set if the
   *  output sequence can be written.
  */
  template<typename _CharT, typename _Traits, typename _Alloc>
    class basic_stringbuf : public basic_streambuf<_CharT, _Traits>
  404f46:	48 8b 44 24 28       	mov    0x28(%rsp),%rax
  404f4b:	48 83 c0 10          	add    $0x10,%rax
  404f4f:	48 89 84 24 00 04 00 	mov    %rax,0x400(%rsp)
  404f56:	00 
  404f57:	48 8b 84 24 48 04 00 	mov    0x448(%rsp),%rax
  404f5e:	00 
      _M_data(_CharT* __p) _GLIBCXX_NOEXCEPT
      { return (_M_dataplus._M_p = __p); }

      _Rep*
      _M_rep() const _GLIBCXX_NOEXCEPT
      { return &((reinterpret_cast<_Rep*> (_M_data()))[-1]); }
  404f5f:	48 8d 78 e8          	lea    -0x18(%rax),%rdi

	void
	_M_dispose(const _Alloc& __a) _GLIBCXX_NOEXCEPT
	{
#if _GLIBCXX_FULLY_DYNAMIC_STRING == 0
	  if (__builtin_expect(this != &_S_empty_rep(), false))
  404f63:	48 39 df             	cmp    %rbx,%rdi
  404f66:	0f 85 bd 28 00 00    	jne    407829 <_ZN6rocket6Config4loadEPKc+0x2f79>

  public:
      /// Destructor deallocates no buffer space.
      virtual 
      ~basic_streambuf() 
      { }
  404f6c:	48 8b 44 24 20       	mov    0x20(%rsp),%rax
  404f71:	48 8d 7d 48          	lea    0x48(%rbp),%rdi
  404f75:	48 83 c0 10          	add    $0x10,%rax
  404f79:	48 89 84 24 00 04 00 	mov    %rax,0x400(%rsp)
  404f80:	00 
  404f81:	e8 2a f2 ff ff       	callq  4041b0 <_ZNSt6localeD1Ev@plt>
       *
       *  This does very little apart from providing a virtual base dtor.
      */
      virtual
      ~basic_istream()
      { _M_gcount = streamsize(0); }
  404f86:	49 8b 47 e8          	mov    -0x18(%r15),%rax
  404f8a:	48 8b 4c 24 50       	mov    0x50(%rsp),%rcx
       *
       *  The destructor does nothing.  More specifically, it does not
       *  destroy the streambuf held by rdbuf().
      */
      virtual
      ~basic_ios() { }
  404f8f:	48 8d 7d 60          	lea    0x60(%rbp),%rdi
  404f93:	4c 89 bc 24 f0 03 00 	mov    %r15,0x3f0(%rsp)
  404f9a:	00 
  404f9b:	48 89 8c 04 f0 03 00 	mov    %rcx,0x3f0(%rsp,%rax,1)
  404fa2:	00 
  404fa3:	49 8d 45 10          	lea    0x10(%r13),%rax
  404fa7:	48 89 84 24 50 04 00 	mov    %rax,0x450(%rsp)
  404fae:	00 
  404faf:	e8 ac ef ff ff       	callq  403f60 <_ZNSt8ios_baseD2Ev@plt>
      // Data Members (private):
      mutable _Alloc_hider	_M_dataplus;

      _CharT*
      _M_data() const _GLIBCXX_NOEXCEPT
      { return  _M_dataplus._M_p; }
  404fb4:	48 8b 84 24 b0 02 00 	mov    0x2b0(%rsp),%rax
  404fbb:	00 
      _M_data(_CharT* __p) _GLIBCXX_NOEXCEPT
      { return (_M_dataplus._M_p = __p); }

      _Rep*
      _M_rep() const _GLIBCXX_NOEXCEPT
      { return &((reinterpret_cast<_Rep*> (_M_data()))[-1]); }
  404fbc:	48 8d 78 e8          	lea    -0x18(%rax),%rdi

	void
	_M_dispose(const _Alloc& __a) _GLIBCXX_NOEXCEPT
	{
#if _GLIBCXX_FULLY_DYNAMIC_STRING == 0
	  if (__builtin_expect(this != &_S_empty_rep(), false))
  404fc0:	48 39 df             	cmp    %rbx,%rdi
  404fc3:	0f 85 b7 23 00 00    	jne    407380 <_ZN6rocket6Config4loadEPKc+0x2ad0>
  404fc9:	48 8b 44 24 18       	mov    0x18(%rsp),%rax
  404fce:	4c 89 70 48          	mov    %r14,0x48(%rax)
      // Data Members (private):
      mutable _Alloc_hider	_M_dataplus;

      _CharT*
      _M_data() const _GLIBCXX_NOEXCEPT
      { return  _M_dataplus._M_p; }
  404fd2:	48 8b 84 24 50 01 00 	mov    0x150(%rsp),%rax
  404fd9:	00 
      _M_data(_CharT* __p) _GLIBCXX_NOEXCEPT
      { return (_M_dataplus._M_p = __p); }

      _Rep*
      _M_rep() const _GLIBCXX_NOEXCEPT
      { return &((reinterpret_cast<_Rep*> (_M_data()))[-1]); }
  404fda:	48 8d 78 e8          	lea    -0x18(%rax),%rdi

	void
	_M_dispose(const _Alloc& __a) _GLIBCXX_NOEXCEPT
	{
#if _GLIBCXX_FULLY_DYNAMIC_STRING == 0
	  if (__builtin_expect(this != &_S_empty_rep(), false))
  404fde:	48 39 df             	cmp    %rbx,%rdi
  404fe1:	0f 85 59 23 00 00    	jne    407340 <_ZN6rocket6Config4loadEPKc+0x2a90>
      // Data Members (private):
      mutable _Alloc_hider	_M_dataplus;

      _CharT*
      _M_data() const _GLIBCXX_NOEXCEPT
      { return  _M_dataplus._M_p; }
  404fe7:	48 8b 84 24 60 01 00 	mov    0x160(%rsp),%rax
  404fee:	00 
      _M_data(_CharT* __p) _GLIBCXX_NOEXCEPT
      { return (_M_dataplus._M_p = __p); }

      _Rep*
      _M_rep() const _GLIBCXX_NOEXCEPT
      { return &((reinterpret_cast<_Rep*> (_M_data()))[-1]); }
  404fef:	48 8d 78 e8          	lea    -0x18(%rax),%rdi

	void
	_M_dispose(const _Alloc& __a) _GLIBCXX_NOEXCEPT
	{
#if _GLIBCXX_FULLY_DYNAMIC_STRING == 0
	  if (__builtin_expect(this != &_S_empty_rep(), false))
  404ff3:	48 39 df             	cmp    %rbx,%rdi
  404ff6:	0f 85 04 23 00 00    	jne    407300 <_ZN6rocket6Config4loadEPKc+0x2a50>
    _log_cfg.count = cr.GetNumber<unsigned>("log", "count", 50);
  404ffc:	4c 8d a4 24 80 01 00 	lea    0x180(%rsp),%r12
  405003:	00 
  405004:	48 8b 54 24 30       	mov    0x30(%rsp),%rdx
  405009:	48 8d 35 a6 b3 00 00 	lea    0xb3a6(%rip),%rsi        # 4103b6 <_IO_stdin_used+0x36>
  405010:	4c 89 e7             	mov    %r12,%rdi
  405013:	e8 08 ee ff ff       	callq  403e20 <_ZNSsC1EPKcRKSaIcE@plt>
  405018:	4c 8d ac 24 70 01 00 	lea    0x170(%rsp),%r13
  40501f:	00 
  405020:	48 8b 54 24 40       	mov    0x40(%rsp),%rdx
  405025:	48 8d 35 7a b3 00 00 	lea    0xb37a(%rip),%rsi        # 4103a6 <_IO_stdin_used+0x26>
  40502c:	4c 89 ef             	mov    %r13,%rdi
  40502f:	e8 ec ed ff ff       	callq  403e20 <_ZNSsC1EPKcRKSaIcE@plt>
  template<typename _CharT, typename _Traits, typename _Alloc>
    inline basic_string<_CharT, _Traits, _Alloc>
    operator+(const basic_string<_CharT, _Traits, _Alloc>& __lhs,
	     const _CharT* __rhs)
    {
      basic_string<_CharT, _Traits, _Alloc> __str(__lhs);
  405034:	48 8d ac 24 f0 02 00 	lea    0x2f0(%rsp),%rbp
  40503b:	00 
  40503c:	4c 89 ee             	mov    %r13,%rsi
  40503f:	48 89 ef             	mov    %rbp,%rdi
  405042:	e8 79 ec ff ff       	callq  403cc0 <_ZNSsC1ERKSs@plt>
       */
      basic_string&
      append(const _CharT* __s)
      {
	__glibcxx_requires_string(__s);
	return this->append(__s, traits_type::length(__s));
  405047:	48 8d 35 66 b3 00 00 	lea    0xb366(%rip),%rsi        # 4103b4 <_IO_stdin_used+0x34>
  40504e:	ba 01 00 00 00       	mov    $0x1,%edx
  405053:	48 89 ef             	mov    %rbp,%rdi
  405056:	e8 f5 e9 ff ff       	callq  403a50 <_ZNSs6appendEPKcm@plt>
#if __cplusplus >= 201103L
  template<typename _CharT, typename _Traits, typename _Alloc>
    inline basic_string<_CharT, _Traits, _Alloc>
    operator+(basic_string<_CharT, _Traits, _Alloc>&& __lhs,
	      const basic_string<_CharT, _Traits, _Alloc>& __rhs)
    { return std::move(__lhs.append(__rhs)); }
  40505b:	4c 89 e6             	mov    %r12,%rsi
  40505e:	48 89 ef             	mov    %rbp,%rdi
  405061:	e8 da f1 ff ff       	callq  404240 <_ZNSs6appendERKSs@plt>
	_CharT*
	_M_clone(const _Alloc&, size_type __res = 0);
      };

      // Use empty-base optimization: http://www.cantrip.org/emptyopt.html
      struct _Alloc_hider : _Alloc
  405066:	48 8b 10             	mov    (%rax),%rdx
  405069:	48 89 94 24 e0 02 00 	mov    %rdx,0x2e0(%rsp)
  405070:	00 
      _M_data() const _GLIBCXX_NOEXCEPT
      { return  _M_dataplus._M_p; }

      _CharT*
      _M_data(_CharT* __p) _GLIBCXX_NOEXCEPT
      { return (_M_dataplus._M_p = __p); }
  405071:	48 8d 53 18          	lea    0x18(%rbx),%rdx
  405075:	48 89 10             	mov    %rdx,(%rax)
      // Data Members (private):
      mutable _Alloc_hider	_M_dataplus;

      _CharT*
      _M_data() const _GLIBCXX_NOEXCEPT
      { return  _M_dataplus._M_p; }
  405078:	48 8b 84 24 f0 02 00 	mov    0x2f0(%rsp),%rax
  40507f:	00 
      _M_data(_CharT* __p) _GLIBCXX_NOEXCEPT
      { return (_M_dataplus._M_p = __p); }

      _Rep*
      _M_rep() const _GLIBCXX_NOEXCEPT
      { return &((reinterpret_cast<_Rep*> (_M_data()))[-1]); }
  405080:	48 8d 78 e8          	lea    -0x18(%rax),%rdi

	void
	_M_dispose(const _Alloc& __a) _GLIBCXX_NOEXCEPT
	{
#if _GLIBCXX_FULLY_DYNAMIC_STRING == 0
	  if (__builtin_expect(this != &_S_empty_rep(), false))
  405084:	48 39 df             	cmp    %rbx,%rdi
  405087:	0f 85 33 22 00 00    	jne    4072c0 <_ZN6rocket6Config4loadEPKc+0x2a10>
       *  pointing to the sought after %pair.  If unsuccessful it returns the
       *  past-the-end ( @c end() ) iterator.
       */
      iterator
      find(const key_type& __x)
      { return _M_t.find(__x); }
  40508d:	4c 8b 74 24 08       	mov    0x8(%rsp),%r14
  405092:	48 8d 84 24 e0 02 00 	lea    0x2e0(%rsp),%rax
  405099:	00 
  40509a:	48 89 c6             	mov    %rax,%rsi
  40509d:	48 89 44 24 20       	mov    %rax,0x20(%rsp)
  4050a2:	4c 89 f7             	mov    %r14,%rdi
                                     const string& key,
                                     T default_value = 0)
    {
        string name = section + "." + key;

        if (_m.find(name) != _m.end())
  4050a5:	4d 8d 76 08          	lea    0x8(%r14),%r14
  4050a9:	e8 52 35 00 00       	callq  408600 <_ZNSt8_Rb_treeISsSt4pairIKSsSsESt10_Select1stIS2_ESt4lessISsESaIS2_EE4findERS1_>
  4050ae:	49 39 c6             	cmp    %rax,%r14
  4050b1:	0f 84 d1 18 00 00    	je     406988 <_ZN6rocket6Config4loadEPKc+0x20d8>
  4050b7:	4c 8b bc 24 d0 03 00 	mov    0x3d0(%rsp),%r15
  4050be:	00 
  4050bf:	4d 85 ff             	test   %r15,%r15
  4050c2:	0f 84 ab 17 00 00    	je     406873 <_ZN6rocket6Config4loadEPKc+0x1fc3>
  4050c8:	48 8b ac 24 e0 02 00 	mov    0x2e0(%rsp),%rbp
  4050cf:	00 
  4050d0:	4c 8b 65 e8          	mov    -0x18(%rbp),%r12
  4050d4:	eb 1d                	jmp    4050f3 <_ZN6rocket6Config4loadEPKc+0x843>
  4050d6:	66 2e 0f 1f 84 00 00 	nopw   %cs:0x0(%rax,%rax,1)
  4050dd:	00 00 00 
	if (__d > __gnu_cxx::__numeric_traits<int>::__max)
	  return __gnu_cxx::__numeric_traits<int>::__max;
	else if (__d < __gnu_cxx::__numeric_traits<int>::__min)
	  return __gnu_cxx::__numeric_traits<int>::__min;
	else
	  return int(__d);
  4050e0:	44 89 e8             	mov    %r13d,%eax
	if (!_M_impl._M_key_compare(_S_key(__x), __k))
  4050e3:	85 c0                	test   %eax,%eax
  4050e5:	78 3f                	js     405126 <_ZN6rocket6Config4loadEPKc+0x876>
		      _Compare, _Alloc>::iterator
    _Rb_tree<_Key, _Val, _KeyOfValue, _Compare, _Alloc>::
    _M_lower_bound(_Link_type __x, _Link_type __y,
		   const _Key& __k)
    {
      while (__x != 0)
  4050e7:	4d 89 fe             	mov    %r15,%r14
	if (!_M_impl._M_key_compare(_S_key(__x), __k))
	  __y = __x, __x = _S_left(__x);
  4050ea:	4d 8b 7f 10          	mov    0x10(%r15),%r15
		      _Compare, _Alloc>::iterator
    _Rb_tree<_Key, _Val, _KeyOfValue, _Compare, _Alloc>::
    _M_lower_bound(_Link_type __x, _Link_type __y,
		   const _Key& __k)
    {
      while (__x != 0)
  4050ee:	4d 85 ff             	test   %r15,%r15
  4050f1:	74 3c                	je     40512f <_ZN6rocket6Config4loadEPKc+0x87f>
      // Data Members (private):
      mutable _Alloc_hider	_M_dataplus;

      _CharT*
      _M_data() const _GLIBCXX_NOEXCEPT
      { return  _M_dataplus._M_p; }
  4050f3:	49 8b 7f 20          	mov    0x20(%r15),%rdi
  4050f7:	4c 89 e2             	mov    %r12,%rdx
  4050fa:	48 89 ee             	mov    %rbp,%rsi
      // Capacity:
      ///  Returns the number of characters in the string, not including any
      ///  null-termination.
      size_type
      size() const _GLIBCXX_NOEXCEPT
      { return _M_rep()->_M_length; }
  4050fd:	4c 8b 6f e8          	mov    -0x18(%rdi),%r13
  405101:	4d 39 e5             	cmp    %r12,%r13
  405104:	49 0f 46 d5          	cmovbe %r13,%rdx
  405108:	e8 e3 ee ff ff       	callq  403ff0 <memcmp@plt>
	const size_type __size = this->size();
	const size_type __osize = __str.size();
	const size_type __len = std::min(__size, __osize);

	int __r = traits_type::compare(_M_data(), __str.data(), __len);
	if (!__r)
  40510d:	85 c0                	test   %eax,%eax
  40510f:	75 d2                	jne    4050e3 <_ZN6rocket6Config4loadEPKc+0x833>
      { _M_copy(__p, __k1, __k2 - __k1); }

      static int
      _S_compare(size_type __n1, size_type __n2) _GLIBCXX_NOEXCEPT
      {
	const difference_type __d = difference_type(__n1 - __n2);
  405111:	4d 29 e5             	sub    %r12,%r13

	if (__d > __gnu_cxx::__numeric_traits<int>::__max)
  405114:	49 81 fd ff ff ff 7f 	cmp    $0x7fffffff,%r13
  40511b:	7f ca                	jg     4050e7 <_ZN6rocket6Config4loadEPKc+0x837>
	  return __gnu_cxx::__numeric_traits<int>::__max;
	else if (__d < __gnu_cxx::__numeric_traits<int>::__min)
  40511d:	49 81 fd 00 00 00 80 	cmp    $0xffffffff80000000,%r13
  405124:	7d ba                	jge    4050e0 <_ZN6rocket6Config4loadEPKc+0x830>
  405126:	4d 8b 7f 18          	mov    0x18(%r15),%r15
  40512a:	4d 85 ff             	test   %r15,%r15
  40512d:	75 c4                	jne    4050f3 <_ZN6rocket6Config4loadEPKc+0x843>
	// concept requirements
	__glibcxx_function_requires(_DefaultConstructibleConcept<mapped_type>)

	iterator __i = lower_bound(__k);
	// __i->first is greater than or equivalent to __k.
	if (__i == end() || key_comp()(__k, (*__i).first))
  40512f:	48 8b 44 24 08       	mov    0x8(%rsp),%rax
  405134:	48 83 c0 08          	add    $0x8,%rax
  405138:	49 39 c6             	cmp    %rax,%r14
  40513b:	0f 84 32 17 00 00    	je     406873 <_ZN6rocket6Config4loadEPKc+0x1fc3>
      // Data Members (private):
      mutable _Alloc_hider	_M_dataplus;

      _CharT*
      _M_data() const _GLIBCXX_NOEXCEPT
      { return  _M_dataplus._M_p; }
  405141:	49 8b 76 20          	mov    0x20(%r14),%rsi
  405145:	4c 89 e2             	mov    %r12,%rdx
  405148:	48 89 ef             	mov    %rbp,%rdi
      // Capacity:
      ///  Returns the number of characters in the string, not including any
      ///  null-termination.
      size_type
      size() const _GLIBCXX_NOEXCEPT
      { return _M_rep()->_M_length; }
  40514b:	4c 8b 6e e8          	mov    -0x18(%rsi),%r13
  40514f:	4d 39 e5             	cmp    %r12,%r13
  405152:	49 0f 46 d5          	cmovbe %r13,%rdx
  405156:	e8 95 ee ff ff       	callq  403ff0 <memcmp@plt>
	const size_type __size = this->size();
	const size_type __osize = __str.size();
	const size_type __len = std::min(__size, __osize);

	int __r = traits_type::compare(_M_data(), __str.data(), __len);
	if (!__r)
  40515b:	85 c0                	test   %eax,%eax
  40515d:	0f 85 08 17 00 00    	jne    40686b <_ZN6rocket6Config4loadEPKc+0x1fbb>
      { _M_copy(__p, __k1, __k2 - __k1); }

      static int
      _S_compare(size_type __n1, size_type __n2) _GLIBCXX_NOEXCEPT
      {
	const difference_type __d = difference_type(__n1 - __n2);
  405163:	4c 89 e1             	mov    %r12,%rcx
  405166:	4c 29 e9             	sub    %r13,%rcx

	if (__d > __gnu_cxx::__numeric_traits<int>::__max)
  405169:	48 81 f9 ff ff ff 7f 	cmp    $0x7fffffff,%rcx
  405170:	0f 8e ea 16 00 00    	jle    406860 <_ZN6rocket6Config4loadEPKc+0x1fb0>
       *  The default constructor does nothing and is not normally
       *  accessible to users.
      */
      basic_ios()
      : ios_base(), _M_tie(0), _M_fill(char_type()), _M_fill_init(false), 
	_M_streambuf(0), _M_ctype(0), _M_num_put(0), _M_num_get(0)
  405176:	48 8d ac 24 f0 03 00 	lea    0x3f0(%rsp),%rbp
  40517d:	00 
  40517e:	48 8d 7d 60          	lea    0x60(%rbp),%rdi
  405182:	e8 99 e9 ff ff       	callq  403b20 <_ZNSt8ios_baseC2Ev@plt>
  405187:	4c 8b 2d 22 ed 20 00 	mov    0x20ed22(%rip),%r13        # 613eb0 <_DYNAMIC+0x228>
  40518e:	c6 84 24 30 05 00 00 	movb   $0x0,0x530(%rsp)
  405195:	00 
      //@}

    protected:
      basic_istream()
      : _M_gcount(streamsize(0))
      { this->init(0); }
  405196:	48 89 ef             	mov    %rbp,%rdi
  405199:	48 c7 84 24 28 05 00 	movq   $0x0,0x528(%rsp)
  4051a0:	00 00 00 00 00 
  4051a5:	c6 84 24 31 05 00 00 	movb   $0x0,0x531(%rsp)
  4051ac:	00 
  4051ad:	31 f6                	xor    %esi,%esi
  4051af:	48 c7 84 24 38 05 00 	movq   $0x0,0x538(%rsp)
  4051b6:	00 00 00 00 00 
  4051bb:	48 c7 84 24 40 05 00 	movq   $0x0,0x540(%rsp)
  4051c2:	00 00 00 00 00 
  4051c7:	49 8d 45 10          	lea    0x10(%r13),%rax
  4051cb:	48 c7 84 24 48 05 00 	movq   $0x0,0x548(%rsp)
  4051d2:	00 00 00 00 00 
  4051d7:	48 c7 84 24 50 05 00 	movq   $0x0,0x550(%rsp)
  4051de:	00 00 00 00 00 
  4051e3:	48 89 84 24 50 04 00 	mov    %rax,0x450(%rsp)
  4051ea:	00 
      seekg(off_type, ios_base::seekdir);
      //@}

    protected:
      basic_istream()
      : _M_gcount(streamsize(0))
  4051eb:	48 8b 05 d6 ec 20 00 	mov    0x20ecd6(%rip),%rax        # 613ec8 <_DYNAMIC+0x240>
  4051f2:	4c 8b 78 08          	mov    0x8(%rax),%r15
  4051f6:	48 8b 40 10          	mov    0x10(%rax),%rax
  4051fa:	48 89 c1             	mov    %rax,%rcx
  4051fd:	48 89 44 24 50       	mov    %rax,0x50(%rsp)
  405202:	49 8b 47 e8          	mov    -0x18(%r15),%rax
  405206:	4c 89 bc 24 f0 03 00 	mov    %r15,0x3f0(%rsp)
  40520d:	00 
  40520e:	48 89 8c 04 f0 03 00 	mov    %rcx,0x3f0(%rsp,%rax,1)
  405215:	00 
  405216:	48 c7 84 24 f8 03 00 	movq   $0x0,0x3f8(%rsp)
  40521d:	00 00 00 00 00 
      { this->init(0); }
  405222:	49 03 7f e8          	add    -0x18(%r15),%rdi
  405226:	e8 d5 ec ff ff       	callq  403f00 <_ZNSt9basic_iosIcSt11char_traitsIcEE4initEPSt15basic_streambufIcS1_E@plt>
       *  string class does its own memory management.
      */
      explicit
      basic_istringstream(const __string_type& __str,
			  ios_base::openmode __mode = ios_base::in)
      : __istream_type(), _M_stringbuf(__str, __mode | ios_base::in)
  40522b:	4c 8b 25 36 ed 20 00 	mov    0x20ed36(%rip),%r12        # 613f68 <_DYNAMIC+0x2e0>
       *  - this is not an error
      */
      basic_streambuf()
      : _M_in_beg(0), _M_in_cur(0), _M_in_end(0), 
      _M_out_beg(0), _M_out_cur(0), _M_out_end(0),
      _M_buf_locale(locale()) 
  405232:	48 8d 7d 48          	lea    0x48(%rbp),%rdi
  405236:	48 c7 84 24 08 04 00 	movq   $0x0,0x408(%rsp)
  40523d:	00 00 00 00 00 
  405242:	48 c7 84 24 10 04 00 	movq   $0x0,0x410(%rsp)
  405249:	00 00 00 00 00 
  40524e:	48 c7 84 24 18 04 00 	movq   $0x0,0x418(%rsp)
  405255:	00 00 00 00 00 
  40525a:	48 c7 84 24 20 04 00 	movq   $0x0,0x420(%rsp)
  405261:	00 00 00 00 00 
  405266:	48 c7 84 24 28 04 00 	movq   $0x0,0x428(%rsp)
  40526d:	00 00 00 00 00 
  405272:	49 8d 44 24 18       	lea    0x18(%r12),%rax
  405277:	48 c7 84 24 30 04 00 	movq   $0x0,0x430(%rsp)
  40527e:	00 00 00 00 00 
  405283:	48 89 84 24 f0 03 00 	mov    %rax,0x3f0(%rsp)
  40528a:	00 
  40528b:	49 8d 44 24 40       	lea    0x40(%r12),%rax
  405290:	48 89 84 24 50 04 00 	mov    %rax,0x450(%rsp)
  405297:	00 
  405298:	48 8b 05 b9 ec 20 00 	mov    0x20ecb9(%rip),%rax        # 613f58 <_DYNAMIC+0x2d0>
  40529f:	48 89 44 24 20       	mov    %rax,0x20(%rsp)
  4052a4:	48 83 c0 10          	add    $0x10,%rax
  4052a8:	48 89 84 24 00 04 00 	mov    %rax,0x400(%rsp)
  4052af:	00 
  4052b0:	e8 cb eb ff ff       	callq  403e80 <_ZNSt6localeC1Ev@plt>
       *  own default ctor.
      */
      explicit
      basic_stringbuf(const __string_type& __str,
		      ios_base::openmode __mode = ios_base::in | ios_base::out)
      : __streambuf_type(), _M_mode(), _M_string(__str.data(), __str.size())
  4052b5:	48 8b 05 ec eb 20 00 	mov    0x20ebec(%rip),%rax        # 613ea8 <_DYNAMIC+0x220>
  4052bc:	48 8b 4c 24 10       	mov    0x10(%rsp),%rcx
  4052c1:	48 8d 7d 58          	lea    0x58(%rbp),%rdi
  4052c5:	c7 84 24 40 04 00 00 	movl   $0x0,0x440(%rsp)
  4052cc:	00 00 00 00 
  4052d0:	48 89 44 24 28       	mov    %rax,0x28(%rsp)
  4052d5:	48 83 c0 10          	add    $0x10,%rax
  4052d9:	48 89 84 24 00 04 00 	mov    %rax,0x400(%rsp)
  4052e0:	00 
      // Data Members (private):
      mutable _Alloc_hider	_M_dataplus;

      _CharT*
      _M_data() const _GLIBCXX_NOEXCEPT
      { return  _M_dataplus._M_p; }
  4052e1:	49 8b 76 28          	mov    0x28(%r14),%rsi
  4052e5:	48 8b 56 e8          	mov    -0x18(%rsi),%rdx
  4052e9:	e8 62 e8 ff ff       	callq  403b50 <_ZNSsC1EPKcmRKSaIcE@plt>
      {
	_M_mode = __mode;
	__size_type __len = 0;
	if (_M_mode & (ios_base::ate | ios_base::app))
	  __len = _M_string.size();
	_M_sync(const_cast<char_type*>(_M_string.data()), 0, __len);
  4052ee:	48 8b b4 24 48 04 00 	mov    0x448(%rsp),%rsi
  4052f5:	00 
  4052f6:	48 8d 7d 10          	lea    0x10(%rbp),%rdi
  4052fa:	31 c9                	xor    %ecx,%ecx
  4052fc:	31 d2                	xor    %edx,%edx
    protected:
      // Common initialization code goes here.
      void
      _M_stringbuf_init(ios_base::openmode __mode)
      {
	_M_mode = __mode;
  4052fe:	c7 84 24 40 04 00 00 	movl   $0x8,0x440(%rsp)
  405305:	08 00 00 00 
	__size_type __len = 0;
	if (_M_mode & (ios_base::ate | ios_base::app))
	  __len = _M_string.size();
	_M_sync(const_cast<char_type*>(_M_string.data()), 0, __len);
  405309:	e8 a2 ec ff ff       	callq  403fb0 <_ZNSt15basic_stringbufIcSt11char_traitsIcESaIcEE7_M_syncEPcmm@plt>
      */
      explicit
      basic_istringstream(const __string_type& __str,
			  ios_base::openmode __mode = ios_base::in)
      : __istream_type(), _M_stringbuf(__str, __mode | ios_base::in)
      { this->init(&_M_stringbuf); }
  40530e:	48 8d 75 10          	lea    0x10(%rbp),%rsi
  405312:	48 8d 7d 60          	lea    0x60(%rbp),%rdi
  405316:	e8 e5 eb ff ff       	callq  403f00 <_ZNSt9basic_iosIcSt11char_traitsIcEE4initEPSt15basic_streambufIcS1_E@plt>
      __istream_type&
      operator>>(int& __n);

      __istream_type&
      operator>>(unsigned int& __n)
      { return _M_extract(__n); }
  40531b:	48 8b 74 24 10       	mov    0x10(%rsp),%rsi
  405320:	48 89 ef             	mov    %rbp,%rdi
        {
            istringstream iss(_m[name]);
            T num = 0;
  405323:	c7 84 24 b0 03 00 00 	movl   $0x0,0x3b0(%rsp)
  40532a:	00 00 00 00 
  40532e:	e8 fd e7 ff ff       	callq  403b30 <_ZNSi10_M_extractIjEERSiRT_@plt>
       *
       *  The buffer is deallocated by the stringbuf object, not the
       *  formatting stream.
      */
      ~basic_istringstream()
      { }
  405333:	49 8d 44 24 18       	lea    0x18(%r12),%rax
            iss >> num;
            return num;
  405338:	44 8b b4 24 b0 03 00 	mov    0x3b0(%rsp),%r14d
  40533f:	00 
  405340:	48 89 84 24 f0 03 00 	mov    %rax,0x3f0(%rsp)
  405347:	00 
  405348:	49 8d 44 24 40       	lea    0x40(%r12),%rax
  40534d:	48 89 84 24 50 04 00 	mov    %rax,0x450(%rsp)
  405354:	00 
   *  For this class, open modes (of type @c ios_base::openmode) have
   *  @c in set if the input sequence can be read, and @c out set if the
   *  output sequence can be written.
  */
  template<typename _CharT, typename _Traits, typename _Alloc>
    class basic_stringbuf : public basic_streambuf<_CharT, _Traits>
  405355:	48 8b 44 24 28       	mov    0x28(%rsp),%rax
  40535a:	48 83 c0 10          	add    $0x10,%rax
  40535e:	48 89 84 24 00 04 00 	mov    %rax,0x400(%rsp)
  405365:	00 
  405366:	48 8b 84 24 48 04 00 	mov    0x448(%rsp),%rax
  40536d:	00 
      _M_data(_CharT* __p) _GLIBCXX_NOEXCEPT
      { return (_M_dataplus._M_p = __p); }

      _Rep*
      _M_rep() const _GLIBCXX_NOEXCEPT
      { return &((reinterpret_cast<_Rep*> (_M_data()))[-1]); }
  40536e:	48 8d 78 e8          	lea    -0x18(%rax),%rdi

	void
	_M_dispose(const _Alloc& __a) _GLIBCXX_NOEXCEPT
	{
#if _GLIBCXX_FULLY_DYNAMIC_STRING == 0
	  if (__builtin_expect(this != &_S_empty_rep(), false))
  405372:	48 39 df             	cmp    %rbx,%rdi
  405375:	0f 85 41 25 00 00    	jne    4078bc <_ZN6rocket6Config4loadEPKc+0x300c>

  public:
      /// Destructor deallocates no buffer space.
      virtual 
      ~basic_streambuf() 
      { }
  40537b:	48 8b 44 24 20       	mov    0x20(%rsp),%rax
  405380:	48 8d 7d 48          	lea    0x48(%rbp),%rdi
  405384:	48 83 c0 10          	add    $0x10,%rax
  405388:	48 89 84 24 00 04 00 	mov    %rax,0x400(%rsp)
  40538f:	00 
  405390:	e8 1b ee ff ff       	callq  4041b0 <_ZNSt6localeD1Ev@plt>
       *
       *  This does very little apart from providing a virtual base dtor.
      */
      virtual
      ~basic_istream()
      { _M_gcount = streamsize(0); }
  405395:	49 8b 47 e8          	mov    -0x18(%r15),%rax
  405399:	48 8b 4c 24 50       	mov    0x50(%rsp),%rcx
       *
       *  The destructor does nothing.  More specifically, it does not
       *  destroy the streambuf held by rdbuf().
      */
      virtual
      ~basic_ios() { }
  40539e:	48 8d 7d 60          	lea    0x60(%rbp),%rdi
  4053a2:	4c 89 bc 24 f0 03 00 	mov    %r15,0x3f0(%rsp)
  4053a9:	00 
  4053aa:	48 89 8c 04 f0 03 00 	mov    %rcx,0x3f0(%rsp,%rax,1)
  4053b1:	00 
  4053b2:	49 8d 45 10          	lea    0x10(%r13),%rax
  4053b6:	48 89 84 24 50 04 00 	mov    %rax,0x450(%rsp)
  4053bd:	00 
  4053be:	e8 9d eb ff ff       	callq  403f60 <_ZNSt8ios_baseD2Ev@plt>
      // Data Members (private):
      mutable _Alloc_hider	_M_dataplus;

      _CharT*
      _M_data() const _GLIBCXX_NOEXCEPT
      { return  _M_dataplus._M_p; }
  4053c3:	48 8b 84 24 e0 02 00 	mov    0x2e0(%rsp),%rax
  4053ca:	00 
      _M_data(_CharT* __p) _GLIBCXX_NOEXCEPT
      { return (_M_dataplus._M_p = __p); }

      _Rep*
      _M_rep() const _GLIBCXX_NOEXCEPT
      { return &((reinterpret_cast<_Rep*> (_M_data()))[-1]); }
  4053cb:	48 8d 78 e8          	lea    -0x18(%rax),%rdi

	void
	_M_dispose(const _Alloc& __a) _GLIBCXX_NOEXCEPT
	{
#if _GLIBCXX_FULLY_DYNAMIC_STRING == 0
	  if (__builtin_expect(this != &_S_empty_rep(), false))
  4053cf:	48 39 df             	cmp    %rbx,%rdi
  4053d2:	0f 85 d8 20 00 00    	jne    4074b0 <_ZN6rocket6Config4loadEPKc+0x2c00>
  4053d8:	48 8b 44 24 18       	mov    0x18(%rsp),%rax
  4053dd:	44 89 70 40          	mov    %r14d,0x40(%rax)
      // Data Members (private):
      mutable _Alloc_hider	_M_dataplus;

      _CharT*
      _M_data() const _GLIBCXX_NOEXCEPT
      { return  _M_dataplus._M_p; }
  4053e1:	48 8b 84 24 70 01 00 	mov    0x170(%rsp),%rax
  4053e8:	00 
      _M_data(_CharT* __p) _GLIBCXX_NOEXCEPT
      { return (_M_dataplus._M_p = __p); }

      _Rep*
      _M_rep() const _GLIBCXX_NOEXCEPT
      { return &((reinterpret_cast<_Rep*> (_M_data()))[-1]); }
  4053e9:	48 8d 78 e8          	lea    -0x18(%rax),%rdi

	void
	_M_dispose(const _Alloc& __a) _GLIBCXX_NOEXCEPT
	{
#if _GLIBCXX_FULLY_DYNAMIC_STRING == 0
	  if (__builtin_expect(this != &_S_empty_rep(), false))
  4053ed:	48 39 df             	cmp    %rbx,%rdi
  4053f0:	0f 85 7a 20 00 00    	jne    407470 <_ZN6rocket6Config4loadEPKc+0x2bc0>
      // Data Members (private):
      mutable _Alloc_hider	_M_dataplus;

      _CharT*
      _M_data() const _GLIBCXX_NOEXCEPT
      { return  _M_dataplus._M_p; }
  4053f6:	48 8b 84 24 80 01 00 	mov    0x180(%rsp),%rax
  4053fd:	00 
      _M_data(_CharT* __p) _GLIBCXX_NOEXCEPT
      { return (_M_dataplus._M_p = __p); }

      _Rep*
      _M_rep() const _GLIBCXX_NOEXCEPT
      { return &((reinterpret_cast<_Rep*> (_M_data()))[-1]); }
  4053fe:	48 8d 78 e8          	lea    -0x18(%rax),%rdi

	void
	_M_dispose(const _Alloc& __a) _GLIBCXX_NOEXCEPT
	{
#if _GLIBCXX_FULLY_DYNAMIC_STRING == 0
	  if (__builtin_expect(this != &_S_empty_rep(), false))
  405402:	48 39 df             	cmp    %rbx,%rdi
  405405:	0f 85 25 20 00 00    	jne    407430 <_ZN6rocket6Config4loadEPKc+0x2b80>

    // server config
    _ip = cr.GetString("server", "ip", "0.0.0.0");
  40540b:	4c 8d b4 24 b0 01 00 	lea    0x1b0(%rsp),%r14
  405412:	00 
  405413:	48 8b 54 24 10       	mov    0x10(%rsp),%rdx
  405418:	48 8d 35 9d af 00 00 	lea    0xaf9d(%rip),%rsi        # 4103bc <_IO_stdin_used+0x3c>
  40541f:	4c 89 f7             	mov    %r14,%rdi
  405422:	e8 f9 e9 ff ff       	callq  403e20 <_ZNSsC1EPKcRKSaIcE@plt>
  405427:	4c 8d ac 24 a0 01 00 	lea    0x1a0(%rsp),%r13
  40542e:	00 
  40542f:	48 8b 54 24 38       	mov    0x38(%rsp),%rdx
  405434:	48 8d 35 89 af 00 00 	lea    0xaf89(%rip),%rsi        # 4103c4 <_IO_stdin_used+0x44>
  40543b:	4c 89 ef             	mov    %r13,%rdi
  40543e:	e8 dd e9 ff ff       	callq  403e20 <_ZNSsC1EPKcRKSaIcE@plt>
  405443:	4c 8d a4 24 90 01 00 	lea    0x190(%rsp),%r12
  40544a:	00 
  40544b:	48 8b 54 24 30       	mov    0x30(%rsp),%rdx
  405450:	48 8d 35 41 b9 00 00 	lea    0xb941(%rip),%rsi        # 410d98 <_ZZN6rocket5MutexD4EvE19__PRETTY_FUNCTION__+0x78>
  405457:	4c 89 e7             	mov    %r12,%rdi
  40545a:	e8 c1 e9 ff ff       	callq  403e20 <_ZNSsC1EPKcRKSaIcE@plt>
  40545f:	48 8d ac 24 c0 01 00 	lea    0x1c0(%rsp),%rbp
  405466:	00 
  405467:	48 8b 74 24 08       	mov    0x8(%rsp),%rsi
  40546c:	4d 89 f0             	mov    %r14,%r8
  40546f:	4c 89 e9             	mov    %r13,%rcx
  405472:	4c 89 e2             	mov    %r12,%rdx
  405475:	48 89 ef             	mov    %rbp,%rdi
  405478:	e8 13 4c 00 00       	callq  40a090 <_ZN6rocket12ConfigReader9GetStringERKSsS2_S2_>
      // PR 58265, this should be noexcept.
      basic_string&
      operator=(basic_string&& __str)
      {
	// NB: DR 1204.
	this->swap(__str);
  40547d:	48 8b 7c 24 18       	mov    0x18(%rsp),%rdi
  405482:	48 89 ee             	mov    %rbp,%rsi
  405485:	e8 86 ed ff ff       	callq  404210 <_ZNSs4swapERSs@plt>
      // Data Members (private):
      mutable _Alloc_hider	_M_dataplus;

      _CharT*
      _M_data() const _GLIBCXX_NOEXCEPT
      { return  _M_dataplus._M_p; }
  40548a:	48 8b 84 24 c0 01 00 	mov    0x1c0(%rsp),%rax
  405491:	00 
      _M_data(_CharT* __p) _GLIBCXX_NOEXCEPT
      { return (_M_dataplus._M_p = __p); }

      _Rep*
      _M_rep() const _GLIBCXX_NOEXCEPT
      { return &((reinterpret_cast<_Rep*> (_M_data()))[-1]); }
  405492:	48 8d 78 e8          	lea    -0x18(%rax),%rdi

	void
	_M_dispose(const _Alloc& __a) _GLIBCXX_NOEXCEPT
	{
#if _GLIBCXX_FULLY_DYNAMIC_STRING == 0
	  if (__builtin_expect(this != &_S_empty_rep(), false))
  405496:	48 39 df             	cmp    %rbx,%rdi
  405499:	0f 85 59 1f 00 00    	jne    4073f8 <_ZN6rocket6Config4loadEPKc+0x2b48>
      // Data Members (private):
      mutable _Alloc_hider	_M_dataplus;

      _CharT*
      _M_data() const _GLIBCXX_NOEXCEPT
      { return  _M_dataplus._M_p; }
  40549f:	48 8b 84 24 90 01 00 	mov    0x190(%rsp),%rax
  4054a6:	00 
      _M_data(_CharT* __p) _GLIBCXX_NOEXCEPT
      { return (_M_dataplus._M_p = __p); }

      _Rep*
      _M_rep() const _GLIBCXX_NOEXCEPT
      { return &((reinterpret_cast<_Rep*> (_M_data()))[-1]); }
  4054a7:	48 8d 78 e8          	lea    -0x18(%rax),%rdi

	void
	_M_dispose(const _Alloc& __a) _GLIBCXX_NOEXCEPT
	{
#if _GLIBCXX_FULLY_DYNAMIC_STRING == 0
	  if (__builtin_expect(this != &_S_empty_rep(), false))
  4054ab:	48 39 df             	cmp    %rbx,%rdi
  4054ae:	0f 85 8c 1c 00 00    	jne    407140 <_ZN6rocket6Config4loadEPKc+0x2890>
      // Data Members (private):
      mutable _Alloc_hider	_M_dataplus;

      _CharT*
      _M_data() const _GLIBCXX_NOEXCEPT
      { return  _M_dataplus._M_p; }
  4054b4:	48 8b 84 24 a0 01 00 	mov    0x1a0(%rsp),%rax
  4054bb:	00 
      _M_data(_CharT* __p) _GLIBCXX_NOEXCEPT
      { return (_M_dataplus._M_p = __p); }

      _Rep*
      _M_rep() const _GLIBCXX_NOEXCEPT
      { return &((reinterpret_cast<_Rep*> (_M_data()))[-1]); }
  4054bc:	48 8d 78 e8          	lea    -0x18(%rax),%rdi

	void
	_M_dispose(const _Alloc& __a) _GLIBCXX_NOEXCEPT
	{
#if _GLIBCXX_FULLY_DYNAMIC_STRING == 0
	  if (__builtin_expect(this != &_S_empty_rep(), false))
  4054c0:	48 39 df             	cmp    %rbx,%rdi
  4054c3:	0f 85 37 1c 00 00    	jne    407100 <_ZN6rocket6Config4loadEPKc+0x2850>
      // Data Members (private):
      mutable _Alloc_hider	_M_dataplus;

      _CharT*
      _M_data() const _GLIBCXX_NOEXCEPT
      { return  _M_dataplus._M_p; }
  4054c9:	48 8b 84 24 b0 01 00 	mov    0x1b0(%rsp),%rax
  4054d0:	00 
      _M_data(_CharT* __p) _GLIBCXX_NOEXCEPT
      { return (_M_dataplus._M_p = __p); }

      _Rep*
      _M_rep() const _GLIBCXX_NOEXCEPT
      { return &((reinterpret_cast<_Rep*> (_M_data()))[-1]); }
  4054d1:	48 8d 78 e8          	lea    -0x18(%rax),%rdi

	void
	_M_dispose(const _Alloc& __a) _GLIBCXX_NOEXCEPT
	{
#if _GLIBCXX_FULLY_DYNAMIC_STRING == 0
	  if (__builtin_expect(this != &_S_empty_rep(), false))
  4054d5:	48 39 df             	cmp    %rbx,%rdi
  4054d8:	0f 85 e2 1b 00 00    	jne    4070c0 <_ZN6rocket6Config4loadEPKc+0x2810>

    _port = cr.GetNumber<int>("server", "port", 5555);
  4054de:	4c 8d a4 24 e0 01 00 	lea    0x1e0(%rsp),%r12
  4054e5:	00 
  4054e6:	48 8b 54 24 30       	mov    0x30(%rsp),%rdx
  4054eb:	48 8d 35 d5 ae 00 00 	lea    0xaed5(%rip),%rsi        # 4103c7 <_IO_stdin_used+0x47>
  4054f2:	4c 89 e7             	mov    %r12,%rdi
  4054f5:	e8 26 e9 ff ff       	callq  403e20 <_ZNSsC1EPKcRKSaIcE@plt>
  4054fa:	4c 8d ac 24 d0 01 00 	lea    0x1d0(%rsp),%r13
  405501:	00 
  405502:	48 8b 54 24 40       	mov    0x40(%rsp),%rdx
  405507:	48 8d 35 8a b8 00 00 	lea    0xb88a(%rip),%rsi        # 410d98 <_ZZN6rocket5MutexD4EvE19__PRETTY_FUNCTION__+0x78>
  40550e:	4c 89 ef             	mov    %r13,%rdi
  405511:	e8 0a e9 ff ff       	callq  403e20 <_ZNSsC1EPKcRKSaIcE@plt>
  template<typename _CharT, typename _Traits, typename _Alloc>
    inline basic_string<_CharT, _Traits, _Alloc>
    operator+(const basic_string<_CharT, _Traits, _Alloc>& __lhs,
	     const _CharT* __rhs)
    {
      basic_string<_CharT, _Traits, _Alloc> __str(__lhs);
  405516:	48 8d ac 24 20 03 00 	lea    0x320(%rsp),%rbp
  40551d:	00 
  40551e:	4c 89 ee             	mov    %r13,%rsi
  405521:	48 89 ef             	mov    %rbp,%rdi
  405524:	e8 97 e7 ff ff       	callq  403cc0 <_ZNSsC1ERKSs@plt>
       */
      basic_string&
      append(const _CharT* __s)
      {
	__glibcxx_requires_string(__s);
	return this->append(__s, traits_type::length(__s));
  405529:	48 8d 35 84 ae 00 00 	lea    0xae84(%rip),%rsi        # 4103b4 <_IO_stdin_used+0x34>
  405530:	ba 01 00 00 00       	mov    $0x1,%edx
  405535:	48 89 ef             	mov    %rbp,%rdi
  405538:	e8 13 e5 ff ff       	callq  403a50 <_ZNSs6appendEPKcm@plt>
#if __cplusplus >= 201103L
  template<typename _CharT, typename _Traits, typename _Alloc>
    inline basic_string<_CharT, _Traits, _Alloc>
    operator+(basic_string<_CharT, _Traits, _Alloc>&& __lhs,
	      const basic_string<_CharT, _Traits, _Alloc>& __rhs)
    { return std::move(__lhs.append(__rhs)); }
  40553d:	4c 89 e6             	mov    %r12,%rsi
  405540:	48 89 ef             	mov    %rbp,%rdi
  405543:	e8 f8 ec ff ff       	callq  404240 <_ZNSs6appendERKSs@plt>
	_CharT*
	_M_clone(const _Alloc&, size_type __res = 0);
      };

      // Use empty-base optimization: http://www.cantrip.org/emptyopt.html
      struct _Alloc_hider : _Alloc
  405548:	48 8b 10             	mov    (%rax),%rdx
  40554b:	48 89 94 24 10 03 00 	mov    %rdx,0x310(%rsp)
  405552:	00 
      _M_data() const _GLIBCXX_NOEXCEPT
      { return  _M_dataplus._M_p; }

      _CharT*
      _M_data(_CharT* __p) _GLIBCXX_NOEXCEPT
      { return (_M_dataplus._M_p = __p); }
  405553:	48 8d 53 18          	lea    0x18(%rbx),%rdx
  405557:	48 89 10             	mov    %rdx,(%rax)
      // Data Members (private):
      mutable _Alloc_hider	_M_dataplus;

      _CharT*
      _M_data() const _GLIBCXX_NOEXCEPT
      { return  _M_dataplus._M_p; }
  40555a:	48 8b 84 24 20 03 00 	mov    0x320(%rsp),%rax
  405561:	00 
      _M_data(_CharT* __p) _GLIBCXX_NOEXCEPT
      { return (_M_dataplus._M_p = __p); }

      _Rep*
      _M_rep() const _GLIBCXX_NOEXCEPT
      { return &((reinterpret_cast<_Rep*> (_M_data()))[-1]); }
  405562:	48 8d 78 e8          	lea    -0x18(%rax),%rdi

	void
	_M_dispose(const _Alloc& __a) _GLIBCXX_NOEXCEPT
	{
#if _GLIBCXX_FULLY_DYNAMIC_STRING == 0
	  if (__builtin_expect(this != &_S_empty_rep(), false))
  405566:	48 39 df             	cmp    %rbx,%rdi
  405569:	0f 85 11 1b 00 00    	jne    407080 <_ZN6rocket6Config4loadEPKc+0x27d0>
       *  pointing to the sought after %pair.  If unsuccessful it returns the
       *  past-the-end ( @c end() ) iterator.
       */
      iterator
      find(const key_type& __x)
      { return _M_t.find(__x); }
  40556f:	4c 8b 74 24 08       	mov    0x8(%rsp),%r14
  405574:	48 8d 84 24 10 03 00 	lea    0x310(%rsp),%rax
  40557b:	00 
  40557c:	48 89 c6             	mov    %rax,%rsi
  40557f:	48 89 44 24 20       	mov    %rax,0x20(%rsp)
  405584:	4c 89 f7             	mov    %r14,%rdi
                                     const string& key,
                                     T default_value = 0)
    {
        string name = section + "." + key;

        if (_m.find(name) != _m.end())
  405587:	4d 8d 76 08          	lea    0x8(%r14),%r14
  40558b:	e8 70 30 00 00       	callq  408600 <_ZNSt8_Rb_treeISsSt4pairIKSsSsESt10_Select1stIS2_ESt4lessISsESaIS2_EE4findERS1_>
  405590:	49 39 c6             	cmp    %rax,%r14
  405593:	0f 84 df 13 00 00    	je     406978 <_ZN6rocket6Config4loadEPKc+0x20c8>
  405599:	4c 8b bc 24 d0 03 00 	mov    0x3d0(%rsp),%r15
  4055a0:	00 
  4055a1:	4d 85 ff             	test   %r15,%r15
  4055a4:	0f 84 79 12 00 00    	je     406823 <_ZN6rocket6Config4loadEPKc+0x1f73>
  4055aa:	48 8b ac 24 10 03 00 	mov    0x310(%rsp),%rbp
  4055b1:	00 
  4055b2:	4c 8b 65 e8          	mov    -0x18(%rbp),%r12
  4055b6:	eb 1b                	jmp    4055d3 <_ZN6rocket6Config4loadEPKc+0xd23>
  4055b8:	0f 1f 84 00 00 00 00 	nopl   0x0(%rax,%rax,1)
  4055bf:	00 
	if (__d > __gnu_cxx::__numeric_traits<int>::__max)
	  return __gnu_cxx::__numeric_traits<int>::__max;
	else if (__d < __gnu_cxx::__numeric_traits<int>::__min)
	  return __gnu_cxx::__numeric_traits<int>::__min;
	else
	  return int(__d);
  4055c0:	44 89 e8             	mov    %r13d,%eax
	if (!_M_impl._M_key_compare(_S_key(__x), __k))
  4055c3:	85 c0                	test   %eax,%eax
  4055c5:	78 3f                	js     405606 <_ZN6rocket6Config4loadEPKc+0xd56>
		      _Compare, _Alloc>::iterator
    _Rb_tree<_Key, _Val, _KeyOfValue, _Compare, _Alloc>::
    _M_lower_bound(_Link_type __x, _Link_type __y,
		   const _Key& __k)
    {
      while (__x != 0)
  4055c7:	4d 89 fe             	mov    %r15,%r14
	if (!_M_impl._M_key_compare(_S_key(__x), __k))
	  __y = __x, __x = _S_left(__x);
  4055ca:	4d 8b 7f 10          	mov    0x10(%r15),%r15
		      _Compare, _Alloc>::iterator
    _Rb_tree<_Key, _Val, _KeyOfValue, _Compare, _Alloc>::
    _M_lower_bound(_Link_type __x, _Link_type __y,
		   const _Key& __k)
    {
      while (__x != 0)
  4055ce:	4d 85 ff             	test   %r15,%r15
  4055d1:	74 3c                	je     40560f <_ZN6rocket6Config4loadEPKc+0xd5f>
      // Data Members (private):
      mutable _Alloc_hider	_M_dataplus;

      _CharT*
      _M_data() const _GLIBCXX_NOEXCEPT
      { return  _M_dataplus._M_p; }
  4055d3:	49 8b 7f 20          	mov    0x20(%r15),%rdi
  4055d7:	4c 89 e2             	mov    %r12,%rdx
  4055da:	48 89 ee             	mov    %rbp,%rsi
      // Capacity:
      ///  Returns the number of characters in the string, not including any
      ///  null-termination.
      size_type
      size() const _GLIBCXX_NOEXCEPT
      { return _M_rep()->_M_length; }
  4055dd:	4c 8b 6f e8          	mov    -0x18(%rdi),%r13
  4055e1:	4d 39 e5             	cmp    %r12,%r13
  4055e4:	49 0f 46 d5          	cmovbe %r13,%rdx
  4055e8:	e8 03 ea ff ff       	callq  403ff0 <memcmp@plt>
	const size_type __size = this->size();
	const size_type __osize = __str.size();
	const size_type __len = std::min(__size, __osize);

	int __r = traits_type::compare(_M_data(), __str.data(), __len);
	if (!__r)
  4055ed:	85 c0                	test   %eax,%eax
  4055ef:	75 d2                	jne    4055c3 <_ZN6rocket6Config4loadEPKc+0xd13>
      { _M_copy(__p, __k1, __k2 - __k1); }

      static int
      _S_compare(size_type __n1, size_type __n2) _GLIBCXX_NOEXCEPT
      {
	const difference_type __d = difference_type(__n1 - __n2);
  4055f1:	4d 29 e5             	sub    %r12,%r13

	if (__d > __gnu_cxx::__numeric_traits<int>::__max)
  4055f4:	49 81 fd ff ff ff 7f 	cmp    $0x7fffffff,%r13
  4055fb:	7f ca                	jg     4055c7 <_ZN6rocket6Config4loadEPKc+0xd17>
	  return __gnu_cxx::__numeric_traits<int>::__max;
	else if (__d < __gnu_cxx::__numeric_traits<int>::__min)
  4055fd:	49 81 fd 00 00 00 80 	cmp    $0xffffffff80000000,%r13
  405604:	7d ba                	jge    4055c0 <_ZN6rocket6Config4loadEPKc+0xd10>
  405606:	4d 8b 7f 18          	mov    0x18(%r15),%r15
  40560a:	4d 85 ff             	test   %r15,%r15
  40560d:	75 c4                	jne    4055d3 <_ZN6rocket6Config4loadEPKc+0xd23>
	// concept requirements
	__glibcxx_function_requires(_DefaultConstructibleConcept<mapped_type>)

	iterator __i = lower_bound(__k);
	// __i->first is greater than or equivalent to __k.
	if (__i == end() || key_comp()(__k, (*__i).first))
  40560f:	48 8b 44 24 08       	mov    0x8(%rsp),%rax
  405614:	48 83 c0 08          	add    $0x8,%rax
  405618:	49 39 c6             	cmp    %rax,%r14
  40561b:	0f 84 02 12 00 00    	je     406823 <_ZN6rocket6Config4loadEPKc+0x1f73>
      // Data Members (private):
      mutable _Alloc_hider	_M_dataplus;

      _CharT*
      _M_data() const _GLIBCXX_NOEXCEPT
      { return  _M_dataplus._M_p; }
  405621:	49 8b 76 20          	mov    0x20(%r14),%rsi
  405625:	4c 89 e2             	mov    %r12,%rdx
  405628:	48 89 ef             	mov    %rbp,%rdi
      // Capacity:
      ///  Returns the number of characters in the string, not including any
      ///  null-termination.
      size_type
      size() const _GLIBCXX_NOEXCEPT
      { return _M_rep()->_M_length; }
  40562b:	4c 8b 6e e8          	mov    -0x18(%rsi),%r13
  40562f:	4d 39 e5             	cmp    %r12,%r13
  405632:	49 0f 46 d5          	cmovbe %r13,%rdx
  405636:	e8 b5 e9 ff ff       	callq  403ff0 <memcmp@plt>
	const size_type __size = this->size();
	const size_type __osize = __str.size();
	const size_type __len = std::min(__size, __osize);

	int __r = traits_type::compare(_M_data(), __str.data(), __len);
	if (!__r)
  40563b:	85 c0                	test   %eax,%eax
  40563d:	0f 85 d8 11 00 00    	jne    40681b <_ZN6rocket6Config4loadEPKc+0x1f6b>
      { _M_copy(__p, __k1, __k2 - __k1); }

      static int
      _S_compare(size_type __n1, size_type __n2) _GLIBCXX_NOEXCEPT
      {
	const difference_type __d = difference_type(__n1 - __n2);
  405643:	4c 89 e1             	mov    %r12,%rcx
  405646:	4c 29 e9             	sub    %r13,%rcx

	if (__d > __gnu_cxx::__numeric_traits<int>::__max)
  405649:	48 81 f9 ff ff ff 7f 	cmp    $0x7fffffff,%rcx
  405650:	0f 8e ba 11 00 00    	jle    406810 <_ZN6rocket6Config4loadEPKc+0x1f60>
       *  The default constructor does nothing and is not normally
       *  accessible to users.
      */
      basic_ios()
      : ios_base(), _M_tie(0), _M_fill(char_type()), _M_fill_init(false), 
	_M_streambuf(0), _M_ctype(0), _M_num_put(0), _M_num_get(0)
  405656:	48 8d ac 24 f0 03 00 	lea    0x3f0(%rsp),%rbp
  40565d:	00 
  40565e:	48 8d 7d 60          	lea    0x60(%rbp),%rdi
  405662:	e8 b9 e4 ff ff       	callq  403b20 <_ZNSt8ios_baseC2Ev@plt>
  405667:	4c 8b 2d 42 e8 20 00 	mov    0x20e842(%rip),%r13        # 613eb0 <_DYNAMIC+0x228>
  40566e:	c6 84 24 30 05 00 00 	movb   $0x0,0x530(%rsp)
  405675:	00 
      //@}

    protected:
      basic_istream()
      : _M_gcount(streamsize(0))
      { this->init(0); }
  405676:	48 89 ef             	mov    %rbp,%rdi
  405679:	48 c7 84 24 28 05 00 	movq   $0x0,0x528(%rsp)
  405680:	00 00 00 00 00 
  405685:	c6 84 24 31 05 00 00 	movb   $0x0,0x531(%rsp)
  40568c:	00 
  40568d:	31 f6                	xor    %esi,%esi
  40568f:	48 c7 84 24 38 05 00 	movq   $0x0,0x538(%rsp)
  405696:	00 00 00 00 00 
  40569b:	48 c7 84 24 40 05 00 	movq   $0x0,0x540(%rsp)
  4056a2:	00 00 00 00 00 
  4056a7:	49 8d 45 10          	lea    0x10(%r13),%rax
  4056ab:	48 c7 84 24 48 05 00 	movq   $0x0,0x548(%rsp)
  4056b2:	00 00 00 00 00 
  4056b7:	48 c7 84 24 50 05 00 	movq   $0x0,0x550(%rsp)
  4056be:	00 00 00 00 00 
  4056c3:	48 89 84 24 50 04 00 	mov    %rax,0x450(%rsp)
  4056ca:	00 
      seekg(off_type, ios_base::seekdir);
      //@}

    protected:
      basic_istream()
      : _M_gcount(streamsize(0))
  4056cb:	48 8b 05 f6 e7 20 00 	mov    0x20e7f6(%rip),%rax        # 613ec8 <_DYNAMIC+0x240>
  4056d2:	4c 8b 78 08          	mov    0x8(%rax),%r15
  4056d6:	48 8b 40 10          	mov    0x10(%rax),%rax
  4056da:	48 89 c1             	mov    %rax,%rcx
  4056dd:	48 89 44 24 50       	mov    %rax,0x50(%rsp)
  4056e2:	49 8b 47 e8          	mov    -0x18(%r15),%rax
  4056e6:	4c 89 bc 24 f0 03 00 	mov    %r15,0x3f0(%rsp)
  4056ed:	00 
  4056ee:	48 89 8c 04 f0 03 00 	mov    %rcx,0x3f0(%rsp,%rax,1)
  4056f5:	00 
  4056f6:	48 c7 84 24 f8 03 00 	movq   $0x0,0x3f8(%rsp)
  4056fd:	00 00 00 00 00 
      { this->init(0); }
  405702:	49 03 7f e8          	add    -0x18(%r15),%rdi
  405706:	e8 f5 e7 ff ff       	callq  403f00 <_ZNSt9basic_iosIcSt11char_traitsIcEE4initEPSt15basic_streambufIcS1_E@plt>
       *  string class does its own memory management.
      */
      explicit
      basic_istringstream(const __string_type& __str,
			  ios_base::openmode __mode = ios_base::in)
      : __istream_type(), _M_stringbuf(__str, __mode | ios_base::in)
  40570b:	4c 8b 25 56 e8 20 00 	mov    0x20e856(%rip),%r12        # 613f68 <_DYNAMIC+0x2e0>
       *  - this is not an error
      */
      basic_streambuf()
      : _M_in_beg(0), _M_in_cur(0), _M_in_end(0), 
      _M_out_beg(0), _M_out_cur(0), _M_out_end(0),
      _M_buf_locale(locale()) 
  405712:	48 8d 7d 48          	lea    0x48(%rbp),%rdi
  405716:	48 c7 84 24 08 04 00 	movq   $0x0,0x408(%rsp)
  40571d:	00 00 00 00 00 
  405722:	48 c7 84 24 10 04 00 	movq   $0x0,0x410(%rsp)
  405729:	00 00 00 00 00 
  40572e:	48 c7 84 24 18 04 00 	movq   $0x0,0x418(%rsp)
  405735:	00 00 00 00 00 
  40573a:	48 c7 84 24 20 04 00 	movq   $0x0,0x420(%rsp)
  405741:	00 00 00 00 00 
  405746:	48 c7 84 24 28 04 00 	movq   $0x0,0x428(%rsp)
  40574d:	00 00 00 00 00 
  405752:	49 8d 44 24 18       	lea    0x18(%r12),%rax
  405757:	48 c7 84 24 30 04 00 	movq   $0x0,0x430(%rsp)
  40575e:	00 00 00 00 00 
  405763:	48 89 84 24 f0 03 00 	mov    %rax,0x3f0(%rsp)
  40576a:	00 
  40576b:	49 8d 44 24 40       	lea    0x40(%r12),%rax
  405770:	48 89 84 24 50 04 00 	mov    %rax,0x450(%rsp)
  405777:	00 
  405778:	48 8b 05 d9 e7 20 00 	mov    0x20e7d9(%rip),%rax        # 613f58 <_DYNAMIC+0x2d0>
  40577f:	48 89 44 24 20       	mov    %rax,0x20(%rsp)
  405784:	48 83 c0 10          	add    $0x10,%rax
  405788:	48 89 84 24 00 04 00 	mov    %rax,0x400(%rsp)
  40578f:	00 
  405790:	e8 eb e6 ff ff       	callq  403e80 <_ZNSt6localeC1Ev@plt>
       *  own default ctor.
      */
      explicit
      basic_stringbuf(const __string_type& __str,
		      ios_base::openmode __mode = ios_base::in | ios_base::out)
      : __streambuf_type(), _M_mode(), _M_string(__str.data(), __str.size())
  405795:	48 8b 05 0c e7 20 00 	mov    0x20e70c(%rip),%rax        # 613ea8 <_DYNAMIC+0x220>
  40579c:	48 8b 4c 24 10       	mov    0x10(%rsp),%rcx
  4057a1:	48 8d 7d 58          	lea    0x58(%rbp),%rdi
  4057a5:	c7 84 24 40 04 00 00 	movl   $0x0,0x440(%rsp)
  4057ac:	00 00 00 00 
  4057b0:	48 89 44 24 28       	mov    %rax,0x28(%rsp)
  4057b5:	48 83 c0 10          	add    $0x10,%rax
  4057b9:	48 89 84 24 00 04 00 	mov    %rax,0x400(%rsp)
  4057c0:	00 
      // Data Members (private):
      mutable _Alloc_hider	_M_dataplus;

      _CharT*
      _M_data() const _GLIBCXX_NOEXCEPT
      { return  _M_dataplus._M_p; }
  4057c1:	49 8b 76 28          	mov    0x28(%r14),%rsi
  4057c5:	48 8b 56 e8          	mov    -0x18(%rsi),%rdx
  4057c9:	e8 82 e3 ff ff       	callq  403b50 <_ZNSsC1EPKcmRKSaIcE@plt>
      {
	_M_mode = __mode;
	__size_type __len = 0;
	if (_M_mode & (ios_base::ate | ios_base::app))
	  __len = _M_string.size();
	_M_sync(const_cast<char_type*>(_M_string.data()), 0, __len);
  4057ce:	48 8b b4 24 48 04 00 	mov    0x448(%rsp),%rsi
  4057d5:	00 
  4057d6:	48 8d 7d 10          	lea    0x10(%rbp),%rdi
  4057da:	31 c9                	xor    %ecx,%ecx
  4057dc:	31 d2                	xor    %edx,%edx
    protected:
      // Common initialization code goes here.
      void
      _M_stringbuf_init(ios_base::openmode __mode)
      {
	_M_mode = __mode;
  4057de:	c7 84 24 40 04 00 00 	movl   $0x8,0x440(%rsp)
  4057e5:	08 00 00 00 
	__size_type __len = 0;
	if (_M_mode & (ios_base::ate | ios_base::app))
	  __len = _M_string.size();
	_M_sync(const_cast<char_type*>(_M_string.data()), 0, __len);
  4057e9:	e8 c2 e7 ff ff       	callq  403fb0 <_ZNSt15basic_stringbufIcSt11char_traitsIcESaIcEE7_M_syncEPcmm@plt>
      */
      explicit
      basic_istringstream(const __string_type& __str,
			  ios_base::openmode __mode = ios_base::in)
      : __istream_type(), _M_stringbuf(__str, __mode | ios_base::in)
      { this->init(&_M_stringbuf); }
  4057ee:	48 8d 75 10          	lea    0x10(%rbp),%rsi
  4057f2:	48 8d 7d 60          	lea    0x60(%rbp),%rdi
  4057f6:	e8 05 e7 ff ff       	callq  403f00 <_ZNSt9basic_iosIcSt11char_traitsIcEE4initEPSt15basic_streambufIcS1_E@plt>
        {
            istringstream iss(_m[name]);
            T num = 0;
            iss >> num;
  4057fb:	48 8b 74 24 10       	mov    0x10(%rsp),%rsi
  405800:	48 89 ef             	mov    %rbp,%rdi
        string name = section + "." + key;

        if (_m.find(name) != _m.end())
        {
            istringstream iss(_m[name]);
            T num = 0;
  405803:	c7 84 24 b0 03 00 00 	movl   $0x0,0x3b0(%rsp)
  40580a:	00 00 00 00 
            iss >> num;
  40580e:	e8 8d e7 ff ff       	callq  403fa0 <_ZNSirsERi@plt>
       *
       *  The buffer is deallocated by the stringbuf object, not the
       *  formatting stream.
      */
      ~basic_istringstream()
      { }
  405813:	49 8d 44 24 18       	lea    0x18(%r12),%rax
            return num;
  405818:	44 8b b4 24 b0 03 00 	mov    0x3b0(%rsp),%r14d
  40581f:	00 
  405820:	48 89 84 24 f0 03 00 	mov    %rax,0x3f0(%rsp)
  405827:	00 
  405828:	49 8d 44 24 40       	lea    0x40(%r12),%rax
  40582d:	48 89 84 24 50 04 00 	mov    %rax,0x450(%rsp)
  405834:	00 
   *  For this class, open modes (of type @c ios_base::openmode) have
   *  @c in set if the input sequence can be read, and @c out set if the
   *  output sequence can be written.
  */
  template<typename _CharT, typename _Traits, typename _Alloc>
    class basic_stringbuf : public basic_streambuf<_CharT, _Traits>
  405835:	48 8b 44 24 28       	mov    0x28(%rsp),%rax
  40583a:	48 83 c0 10          	add    $0x10,%rax
  40583e:	48 89 84 24 00 04 00 	mov    %rax,0x400(%rsp)
  405845:	00 
  405846:	48 8b 84 24 48 04 00 	mov    0x448(%rsp),%rax
  40584d:	00 
      _M_data(_CharT* __p) _GLIBCXX_NOEXCEPT
      { return (_M_dataplus._M_p = __p); }

      _Rep*
      _M_rep() const _GLIBCXX_NOEXCEPT
      { return &((reinterpret_cast<_Rep*> (_M_data()))[-1]); }
  40584e:	48 8d 78 e8          	lea    -0x18(%rax),%rdi

	void
	_M_dispose(const _Alloc& __a) _GLIBCXX_NOEXCEPT
	{
#if _GLIBCXX_FULLY_DYNAMIC_STRING == 0
	  if (__builtin_expect(this != &_S_empty_rep(), false))
  405852:	48 39 df             	cmp    %rbx,%rdi
  405855:	0f 85 6c 1f 00 00    	jne    4077c7 <_ZN6rocket6Config4loadEPKc+0x2f17>

  public:
      /// Destructor deallocates no buffer space.
      virtual 
      ~basic_streambuf() 
      { }
  40585b:	48 8b 44 24 20       	mov    0x20(%rsp),%rax
  405860:	48 8d 7d 48          	lea    0x48(%rbp),%rdi
  405864:	48 83 c0 10          	add    $0x10,%rax
  405868:	48 89 84 24 00 04 00 	mov    %rax,0x400(%rsp)
  40586f:	00 
  405870:	e8 3b e9 ff ff       	callq  4041b0 <_ZNSt6localeD1Ev@plt>
       *
       *  This does very little apart from providing a virtual base dtor.
      */
      virtual
      ~basic_istream()
      { _M_gcount = streamsize(0); }
  405875:	49 8b 47 e8          	mov    -0x18(%r15),%rax
  405879:	48 8b 4c 24 50       	mov    0x50(%rsp),%rcx
       *
       *  The destructor does nothing.  More specifically, it does not
       *  destroy the streambuf held by rdbuf().
      */
      virtual
      ~basic_ios() { }
  40587e:	48 8d 7d 60          	lea    0x60(%rbp),%rdi
  405882:	4c 89 bc 24 f0 03 00 	mov    %r15,0x3f0(%rsp)
  405889:	00 
  40588a:	48 89 8c 04 f0 03 00 	mov    %rcx,0x3f0(%rsp,%rax,1)
  405891:	00 
  405892:	49 8d 45 10          	lea    0x10(%r13),%rax
  405896:	48 89 84 24 50 04 00 	mov    %rax,0x450(%rsp)
  40589d:	00 
  40589e:	e8 bd e6 ff ff       	callq  403f60 <_ZNSt8ios_baseD2Ev@plt>
      // Data Members (private):
      mutable _Alloc_hider	_M_dataplus;

      _CharT*
      _M_data() const _GLIBCXX_NOEXCEPT
      { return  _M_dataplus._M_p; }
  4058a3:	48 8b 84 24 10 03 00 	mov    0x310(%rsp),%rax
  4058aa:	00 
      _M_data(_CharT* __p) _GLIBCXX_NOEXCEPT
      { return (_M_dataplus._M_p = __p); }

      _Rep*
      _M_rep() const _GLIBCXX_NOEXCEPT
      { return &((reinterpret_cast<_Rep*> (_M_data()))[-1]); }
  4058ab:	48 8d 78 e8          	lea    -0x18(%rax),%rdi

	void
	_M_dispose(const _Alloc& __a) _GLIBCXX_NOEXCEPT
	{
#if _GLIBCXX_FULLY_DYNAMIC_STRING == 0
	  if (__builtin_expect(this != &_S_empty_rep(), false))
  4058af:	48 39 df             	cmp    %rbx,%rdi
  4058b2:	0f 85 88 17 00 00    	jne    407040 <_ZN6rocket6Config4loadEPKc+0x2790>
  4058b8:	48 8b 44 24 18       	mov    0x18(%rsp),%rax
  4058bd:	44 89 70 08          	mov    %r14d,0x8(%rax)
      // Data Members (private):
      mutable _Alloc_hider	_M_dataplus;

      _CharT*
      _M_data() const _GLIBCXX_NOEXCEPT
      { return  _M_dataplus._M_p; }
  4058c1:	48 8b 84 24 d0 01 00 	mov    0x1d0(%rsp),%rax
  4058c8:	00 
      _M_data(_CharT* __p) _GLIBCXX_NOEXCEPT
      { return (_M_dataplus._M_p = __p); }

      _Rep*
      _M_rep() const _GLIBCXX_NOEXCEPT
      { return &((reinterpret_cast<_Rep*> (_M_data()))[-1]); }
  4058c9:	48 8d 78 e8          	lea    -0x18(%rax),%rdi

	void
	_M_dispose(const _Alloc& __a) _GLIBCXX_NOEXCEPT
	{
#if _GLIBCXX_FULLY_DYNAMIC_STRING == 0
	  if (__builtin_expect(this != &_S_empty_rep(), false))
  4058cd:	48 39 df             	cmp    %rbx,%rdi
  4058d0:	0f 85 2a 17 00 00    	jne    407000 <_ZN6rocket6Config4loadEPKc+0x2750>
      // Data Members (private):
      mutable _Alloc_hider	_M_dataplus;

      _CharT*
      _M_data() const _GLIBCXX_NOEXCEPT
      { return  _M_dataplus._M_p; }
  4058d6:	48 8b 84 24 e0 01 00 	mov    0x1e0(%rsp),%rax
  4058dd:	00 
      _M_data(_CharT* __p) _GLIBCXX_NOEXCEPT
      { return (_M_dataplus._M_p = __p); }

      _Rep*
      _M_rep() const _GLIBCXX_NOEXCEPT
      { return &((reinterpret_cast<_Rep*> (_M_data()))[-1]); }
  4058de:	48 8d 78 e8          	lea    -0x18(%rax),%rdi

	void
	_M_dispose(const _Alloc& __a) _GLIBCXX_NOEXCEPT
	{
#if _GLIBCXX_FULLY_DYNAMIC_STRING == 0
	  if (__builtin_expect(this != &_S_empty_rep(), false))
  4058e2:	48 39 df             	cmp    %rbx,%rdi
  4058e5:	0f 85 d5 16 00 00    	jne    406fc0 <_ZN6rocket6Config4loadEPKc+0x2710>
    if (_port <= 0)
  4058eb:	48 8b 44 24 18       	mov    0x18(%rsp),%rax
  4058f0:	8b 78 08             	mov    0x8(%rax),%edi
  4058f3:	85 ff                	test   %edi,%edi
  4058f5:	0f 8e 9d 10 00 00    	jle    406998 <_ZN6rocket6Config4loadEPKc+0x20e8>
    {
        _port = 5555;
    }

    _net_nthreads = cr.GetNumber<int>("server", "net_nthreads", 10);
  4058fb:	48 8d ac 24 00 02 00 	lea    0x200(%rsp),%rbp
  405902:	00 
  405903:	48 8b 54 24 30       	mov    0x30(%rsp),%rdx
  405908:	48 8d 35 bd aa 00 00 	lea    0xaabd(%rip),%rsi        # 4103cc <_IO_stdin_used+0x4c>
  40590f:	48 89 ef             	mov    %rbp,%rdi
  405912:	e8 09 e5 ff ff       	callq  403e20 <_ZNSsC1EPKcRKSaIcE@plt>
  405917:	4c 8d a4 24 f0 01 00 	lea    0x1f0(%rsp),%r12
  40591e:	00 
  40591f:	48 8b 54 24 40       	mov    0x40(%rsp),%rdx
  405924:	48 8d 35 6d b4 00 00 	lea    0xb46d(%rip),%rsi        # 410d98 <_ZZN6rocket5MutexD4EvE19__PRETTY_FUNCTION__+0x78>
  40592b:	4c 89 e7             	mov    %r12,%rdi
  40592e:	e8 ed e4 ff ff       	callq  403e20 <_ZNSsC1EPKcRKSaIcE@plt>
  template<typename _CharT, typename _Traits, typename _Alloc>
    inline basic_string<_CharT, _Traits, _Alloc>
    operator+(const basic_string<_CharT, _Traits, _Alloc>& __lhs,
	     const _CharT* __rhs)
    {
      basic_string<_CharT, _Traits, _Alloc> __str(__lhs);
  405933:	48 8d 84 24 50 03 00 	lea    0x350(%rsp),%rax
  40593a:	00 
  40593b:	4c 89 e6             	mov    %r12,%rsi
  40593e:	48 89 c7             	mov    %rax,%rdi
  405941:	49 89 c6             	mov    %rax,%r14
  405944:	48 89 44 24 50       	mov    %rax,0x50(%rsp)
  405949:	e8 72 e3 ff ff       	callq  403cc0 <_ZNSsC1ERKSs@plt>
       */
      basic_string&
      append(const _CharT* __s)
      {
	__glibcxx_requires_string(__s);
	return this->append(__s, traits_type::length(__s));
  40594e:	48 8d 35 5f aa 00 00 	lea    0xaa5f(%rip),%rsi        # 4103b4 <_IO_stdin_used+0x34>
  405955:	ba 01 00 00 00       	mov    $0x1,%edx
  40595a:	4c 89 f7             	mov    %r14,%rdi
  40595d:	e8 ee e0 ff ff       	callq  403a50 <_ZNSs6appendEPKcm@plt>
#if __cplusplus >= 201103L
  template<typename _CharT, typename _Traits, typename _Alloc>
    inline basic_string<_CharT, _Traits, _Alloc>
    operator+(basic_string<_CharT, _Traits, _Alloc>&& __lhs,
	      const basic_string<_CharT, _Traits, _Alloc>& __rhs)
    { return std::move(__lhs.append(__rhs)); }
  405962:	48 89 ee             	mov    %rbp,%rsi
  405965:	4c 89 f7             	mov    %r14,%rdi
  405968:	e8 d3 e8 ff ff       	callq  404240 <_ZNSs6appendERKSs@plt>
	_CharT*
	_M_clone(const _Alloc&, size_type __res = 0);
      };

      // Use empty-base optimization: http://www.cantrip.org/emptyopt.html
      struct _Alloc_hider : _Alloc
  40596d:	48 8b 10             	mov    (%rax),%rdx
  405970:	48 89 94 24 40 03 00 	mov    %rdx,0x340(%rsp)
  405977:	00 
      _M_data() const _GLIBCXX_NOEXCEPT
      { return  _M_dataplus._M_p; }

      _CharT*
      _M_data(_CharT* __p) _GLIBCXX_NOEXCEPT
      { return (_M_dataplus._M_p = __p); }
  405978:	48 8d 53 18          	lea    0x18(%rbx),%rdx
  40597c:	48 89 10             	mov    %rdx,(%rax)
      // Data Members (private):
      mutable _Alloc_hider	_M_dataplus;

      _CharT*
      _M_data() const _GLIBCXX_NOEXCEPT
      { return  _M_dataplus._M_p; }
  40597f:	48 8b 84 24 50 03 00 	mov    0x350(%rsp),%rax
  405986:	00 
      _M_data(_CharT* __p) _GLIBCXX_NOEXCEPT
      { return (_M_dataplus._M_p = __p); }

      _Rep*
      _M_rep() const _GLIBCXX_NOEXCEPT
      { return &((reinterpret_cast<_Rep*> (_M_data()))[-1]); }
  405987:	48 8d 78 e8          	lea    -0x18(%rax),%rdi

	void
	_M_dispose(const _Alloc& __a) _GLIBCXX_NOEXCEPT
	{
#if _GLIBCXX_FULLY_DYNAMIC_STRING == 0
	  if (__builtin_expect(this != &_S_empty_rep(), false))
  40598b:	48 39 df             	cmp    %rbx,%rdi
  40598e:	0f 85 74 13 00 00    	jne    406d08 <_ZN6rocket6Config4loadEPKc+0x2458>
       *  pointing to the sought after %pair.  If unsuccessful it returns the
       *  past-the-end ( @c end() ) iterator.
       */
      iterator
      find(const key_type& __x)
      { return _M_t.find(__x); }
  405994:	4c 8b 74 24 08       	mov    0x8(%rsp),%r14
  405999:	48 8d 84 24 40 03 00 	lea    0x340(%rsp),%rax
  4059a0:	00 
  4059a1:	48 89 c6             	mov    %rax,%rsi
  4059a4:	48 89 44 24 20       	mov    %rax,0x20(%rsp)
  4059a9:	4c 89 f7             	mov    %r14,%rdi
                                     const string& key,
                                     T default_value = 0)
    {
        string name = section + "." + key;

        if (_m.find(name) != _m.end())
  4059ac:	4d 8d 76 08          	lea    0x8(%r14),%r14
  4059b0:	e8 4b 2c 00 00       	callq  408600 <_ZNSt8_Rb_treeISsSt4pairIKSsSsESt10_Select1stIS2_ESt4lessISsESaIS2_EE4findERS1_>
  4059b5:	49 39 c6             	cmp    %rax,%r14
  4059b8:	0f 84 9a 0f 00 00    	je     406958 <_ZN6rocket6Config4loadEPKc+0x20a8>
  4059be:	4c 8b bc 24 d0 03 00 	mov    0x3d0(%rsp),%r15
  4059c5:	00 
  4059c6:	4d 85 ff             	test   %r15,%r15
  4059c9:	0f 84 04 0e 00 00    	je     4067d3 <_ZN6rocket6Config4loadEPKc+0x1f23>
  4059cf:	48 8b ac 24 40 03 00 	mov    0x340(%rsp),%rbp
  4059d6:	00 
  4059d7:	4c 8b 65 e8          	mov    -0x18(%rbp),%r12
  4059db:	eb 16                	jmp    4059f3 <_ZN6rocket6Config4loadEPKc+0x1143>
  4059dd:	0f 1f 00             	nopl   (%rax)
	if (__d > __gnu_cxx::__numeric_traits<int>::__max)
	  return __gnu_cxx::__numeric_traits<int>::__max;
	else if (__d < __gnu_cxx::__numeric_traits<int>::__min)
	  return __gnu_cxx::__numeric_traits<int>::__min;
	else
	  return int(__d);
  4059e0:	44 89 e8             	mov    %r13d,%eax
	if (!_M_impl._M_key_compare(_S_key(__x), __k))
  4059e3:	85 c0                	test   %eax,%eax
  4059e5:	78 3f                	js     405a26 <_ZN6rocket6Config4loadEPKc+0x1176>
		      _Compare, _Alloc>::iterator
    _Rb_tree<_Key, _Val, _KeyOfValue, _Compare, _Alloc>::
    _M_lower_bound(_Link_type __x, _Link_type __y,
		   const _Key& __k)
    {
      while (__x != 0)
  4059e7:	4d 89 fe             	mov    %r15,%r14
	if (!_M_impl._M_key_compare(_S_key(__x), __k))
	  __y = __x, __x = _S_left(__x);
  4059ea:	4d 8b 7f 10          	mov    0x10(%r15),%r15
		      _Compare, _Alloc>::iterator
    _Rb_tree<_Key, _Val, _KeyOfValue, _Compare, _Alloc>::
    _M_lower_bound(_Link_type __x, _Link_type __y,
		   const _Key& __k)
    {
      while (__x != 0)
  4059ee:	4d 85 ff             	test   %r15,%r15
  4059f1:	74 3c                	je     405a2f <_ZN6rocket6Config4loadEPKc+0x117f>
      // Data Members (private):
      mutable _Alloc_hider	_M_dataplus;

      _CharT*
      _M_data() const _GLIBCXX_NOEXCEPT
      { return  _M_dataplus._M_p; }
  4059f3:	49 8b 7f 20          	mov    0x20(%r15),%rdi
  4059f7:	4c 89 e2             	mov    %r12,%rdx
  4059fa:	48 89 ee             	mov    %rbp,%rsi
      // Capacity:
      ///  Returns the number of characters in the string, not including any
      ///  null-termination.
      size_type
      size() const _GLIBCXX_NOEXCEPT
      { return _M_rep()->_M_length; }
  4059fd:	4c 8b 6f e8          	mov    -0x18(%rdi),%r13
  405a01:	4d 39 e5             	cmp    %r12,%r13
  405a04:	49 0f 46 d5          	cmovbe %r13,%rdx
  405a08:	e8 e3 e5 ff ff       	callq  403ff0 <memcmp@plt>
	const size_type __size = this->size();
	const size_type __osize = __str.size();
	const size_type __len = std::min(__size, __osize);

	int __r = traits_type::compare(_M_data(), __str.data(), __len);
	if (!__r)
  405a0d:	85 c0                	test   %eax,%eax
  405a0f:	75 d2                	jne    4059e3 <_ZN6rocket6Config4loadEPKc+0x1133>
      { _M_copy(__p, __k1, __k2 - __k1); }

      static int
      _S_compare(size_type __n1, size_type __n2) _GLIBCXX_NOEXCEPT
      {
	const difference_type __d = difference_type(__n1 - __n2);
  405a11:	4d 29 e5             	sub    %r12,%r13

	if (__d > __gnu_cxx::__numeric_traits<int>::__max)
  405a14:	49 81 fd ff ff ff 7f 	cmp    $0x7fffffff,%r13
  405a1b:	7f ca                	jg     4059e7 <_ZN6rocket6Config4loadEPKc+0x1137>
	  return __gnu_cxx::__numeric_traits<int>::__max;
	else if (__d < __gnu_cxx::__numeric_traits<int>::__min)
  405a1d:	49 81 fd 00 00 00 80 	cmp    $0xffffffff80000000,%r13
  405a24:	7d ba                	jge    4059e0 <_ZN6rocket6Config4loadEPKc+0x1130>
  405a26:	4d 8b 7f 18          	mov    0x18(%r15),%r15
  405a2a:	4d 85 ff             	test   %r15,%r15
  405a2d:	75 c4                	jne    4059f3 <_ZN6rocket6Config4loadEPKc+0x1143>
	// concept requirements
	__glibcxx_function_requires(_DefaultConstructibleConcept<mapped_type>)

	iterator __i = lower_bound(__k);
	// __i->first is greater than or equivalent to __k.
	if (__i == end() || key_comp()(__k, (*__i).first))
  405a2f:	48 8b 44 24 08       	mov    0x8(%rsp),%rax
  405a34:	48 83 c0 08          	add    $0x8,%rax
  405a38:	49 39 c6             	cmp    %rax,%r14
  405a3b:	0f 84 92 0d 00 00    	je     4067d3 <_ZN6rocket6Config4loadEPKc+0x1f23>
      // Data Members (private):
      mutable _Alloc_hider	_M_dataplus;

      _CharT*
      _M_data() const _GLIBCXX_NOEXCEPT
      { return  _M_dataplus._M_p; }
  405a41:	49 8b 76 20          	mov    0x20(%r14),%rsi
  405a45:	4c 89 e2             	mov    %r12,%rdx
  405a48:	48 89 ef             	mov    %rbp,%rdi
      // Capacity:
      ///  Returns the number of characters in the string, not including any
      ///  null-termination.
      size_type
      size() const _GLIBCXX_NOEXCEPT
      { return _M_rep()->_M_length; }
  405a4b:	4c 8b 6e e8          	mov    -0x18(%rsi),%r13
  405a4f:	4d 39 e5             	cmp    %r12,%r13
  405a52:	49 0f 46 d5          	cmovbe %r13,%rdx
  405a56:	e8 95 e5 ff ff       	callq  403ff0 <memcmp@plt>
	const size_type __size = this->size();
	const size_type __osize = __str.size();
	const size_type __len = std::min(__size, __osize);

	int __r = traits_type::compare(_M_data(), __str.data(), __len);
	if (!__r)
  405a5b:	85 c0                	test   %eax,%eax
  405a5d:	0f 85 68 0d 00 00    	jne    4067cb <_ZN6rocket6Config4loadEPKc+0x1f1b>
      { _M_copy(__p, __k1, __k2 - __k1); }

      static int
      _S_compare(size_type __n1, size_type __n2) _GLIBCXX_NOEXCEPT
      {
	const difference_type __d = difference_type(__n1 - __n2);
  405a63:	4c 89 e1             	mov    %r12,%rcx
  405a66:	4c 29 e9             	sub    %r13,%rcx

	if (__d > __gnu_cxx::__numeric_traits<int>::__max)
  405a69:	48 81 f9 ff ff ff 7f 	cmp    $0x7fffffff,%rcx
  405a70:	0f 8e 4a 0d 00 00    	jle    4067c0 <_ZN6rocket6Config4loadEPKc+0x1f10>
       *  The default constructor does nothing and is not normally
       *  accessible to users.
      */
      basic_ios()
      : ios_base(), _M_tie(0), _M_fill(char_type()), _M_fill_init(false), 
	_M_streambuf(0), _M_ctype(0), _M_num_put(0), _M_num_get(0)
  405a76:	48 8d ac 24 f0 03 00 	lea    0x3f0(%rsp),%rbp
  405a7d:	00 
  405a7e:	48 8d 7d 60          	lea    0x60(%rbp),%rdi
  405a82:	e8 99 e0 ff ff       	callq  403b20 <_ZNSt8ios_baseC2Ev@plt>
  405a87:	4c 8b 2d 22 e4 20 00 	mov    0x20e422(%rip),%r13        # 613eb0 <_DYNAMIC+0x228>
  405a8e:	c6 84 24 30 05 00 00 	movb   $0x0,0x530(%rsp)
  405a95:	00 
      //@}

    protected:
      basic_istream()
      : _M_gcount(streamsize(0))
      { this->init(0); }
  405a96:	48 89 ef             	mov    %rbp,%rdi
  405a99:	48 c7 84 24 28 05 00 	movq   $0x0,0x528(%rsp)
  405aa0:	00 00 00 00 00 
  405aa5:	c6 84 24 31 05 00 00 	movb   $0x0,0x531(%rsp)
  405aac:	00 
  405aad:	31 f6                	xor    %esi,%esi
  405aaf:	48 c7 84 24 38 05 00 	movq   $0x0,0x538(%rsp)
  405ab6:	00 00 00 00 00 
  405abb:	48 c7 84 24 40 05 00 	movq   $0x0,0x540(%rsp)
  405ac2:	00 00 00 00 00 
  405ac7:	49 8d 45 10          	lea    0x10(%r13),%rax
  405acb:	48 c7 84 24 48 05 00 	movq   $0x0,0x548(%rsp)
  405ad2:	00 00 00 00 00 
  405ad7:	48 c7 84 24 50 05 00 	movq   $0x0,0x550(%rsp)
  405ade:	00 00 00 00 00 
  405ae3:	48 89 84 24 50 04 00 	mov    %rax,0x450(%rsp)
  405aea:	00 
      seekg(off_type, ios_base::seekdir);
      //@}

    protected:
      basic_istream()
      : _M_gcount(streamsize(0))
  405aeb:	48 8b 05 d6 e3 20 00 	mov    0x20e3d6(%rip),%rax        # 613ec8 <_DYNAMIC+0x240>
  405af2:	4c 8b 78 08          	mov    0x8(%rax),%r15
  405af6:	48 8b 40 10          	mov    0x10(%rax),%rax
  405afa:	48 89 c1             	mov    %rax,%rcx
  405afd:	48 89 44 24 58       	mov    %rax,0x58(%rsp)
  405b02:	49 8b 47 e8          	mov    -0x18(%r15),%rax
  405b06:	4c 89 bc 24 f0 03 00 	mov    %r15,0x3f0(%rsp)
  405b0d:	00 
  405b0e:	48 89 8c 04 f0 03 00 	mov    %rcx,0x3f0(%rsp,%rax,1)
  405b15:	00 
  405b16:	48 c7 84 24 f8 03 00 	movq   $0x0,0x3f8(%rsp)
  405b1d:	00 00 00 00 00 
      { this->init(0); }
  405b22:	49 03 7f e8          	add    -0x18(%r15),%rdi
  405b26:	e8 d5 e3 ff ff       	callq  403f00 <_ZNSt9basic_iosIcSt11char_traitsIcEE4initEPSt15basic_streambufIcS1_E@plt>
       *  string class does its own memory management.
      */
      explicit
      basic_istringstream(const __string_type& __str,
			  ios_base::openmode __mode = ios_base::in)
      : __istream_type(), _M_stringbuf(__str, __mode | ios_base::in)
  405b2b:	4c 8b 25 36 e4 20 00 	mov    0x20e436(%rip),%r12        # 613f68 <_DYNAMIC+0x2e0>
       *  - this is not an error
      */
      basic_streambuf()
      : _M_in_beg(0), _M_in_cur(0), _M_in_end(0), 
      _M_out_beg(0), _M_out_cur(0), _M_out_end(0),
      _M_buf_locale(locale()) 
  405b32:	48 8d 7d 48          	lea    0x48(%rbp),%rdi
  405b36:	48 c7 84 24 08 04 00 	movq   $0x0,0x408(%rsp)
  405b3d:	00 00 00 00 00 
  405b42:	48 c7 84 24 10 04 00 	movq   $0x0,0x410(%rsp)
  405b49:	00 00 00 00 00 
  405b4e:	48 c7 84 24 18 04 00 	movq   $0x0,0x418(%rsp)
  405b55:	00 00 00 00 00 
  405b5a:	48 c7 84 24 20 04 00 	movq   $0x0,0x420(%rsp)
  405b61:	00 00 00 00 00 
  405b66:	48 c7 84 24 28 04 00 	movq   $0x0,0x428(%rsp)
  405b6d:	00 00 00 00 00 
  405b72:	49 8d 44 24 18       	lea    0x18(%r12),%rax
  405b77:	48 c7 84 24 30 04 00 	movq   $0x0,0x430(%rsp)
  405b7e:	00 00 00 00 00 
  405b83:	48 89 84 24 f0 03 00 	mov    %rax,0x3f0(%rsp)
  405b8a:	00 
  405b8b:	49 8d 44 24 40       	lea    0x40(%r12),%rax
  405b90:	48 89 84 24 50 04 00 	mov    %rax,0x450(%rsp)
  405b97:	00 
  405b98:	48 8b 05 b9 e3 20 00 	mov    0x20e3b9(%rip),%rax        # 613f58 <_DYNAMIC+0x2d0>
  405b9f:	48 89 44 24 20       	mov    %rax,0x20(%rsp)
  405ba4:	48 83 c0 10          	add    $0x10,%rax
  405ba8:	48 89 84 24 00 04 00 	mov    %rax,0x400(%rsp)
  405baf:	00 
  405bb0:	e8 cb e2 ff ff       	callq  403e80 <_ZNSt6localeC1Ev@plt>
       *  own default ctor.
      */
      explicit
      basic_stringbuf(const __string_type& __str,
		      ios_base::openmode __mode = ios_base::in | ios_base::out)
      : __streambuf_type(), _M_mode(), _M_string(__str.data(), __str.size())
  405bb5:	48 8b 05 ec e2 20 00 	mov    0x20e2ec(%rip),%rax        # 613ea8 <_DYNAMIC+0x220>
  405bbc:	48 8b 4c 24 10       	mov    0x10(%rsp),%rcx
  405bc1:	48 8d 7d 58          	lea    0x58(%rbp),%rdi
  405bc5:	c7 84 24 40 04 00 00 	movl   $0x0,0x440(%rsp)
  405bcc:	00 00 00 00 
  405bd0:	48 89 44 24 28       	mov    %rax,0x28(%rsp)
  405bd5:	48 83 c0 10          	add    $0x10,%rax
  405bd9:	48 89 84 24 00 04 00 	mov    %rax,0x400(%rsp)
  405be0:	00 
      // Data Members (private):
      mutable _Alloc_hider	_M_dataplus;

      _CharT*
      _M_data() const _GLIBCXX_NOEXCEPT
      { return  _M_dataplus._M_p; }
  405be1:	49 8b 76 28          	mov    0x28(%r14),%rsi
  405be5:	48 8b 56 e8          	mov    -0x18(%rsi),%rdx
  405be9:	e8 62 df ff ff       	callq  403b50 <_ZNSsC1EPKcmRKSaIcE@plt>
      {
	_M_mode = __mode;
	__size_type __len = 0;
	if (_M_mode & (ios_base::ate | ios_base::app))
	  __len = _M_string.size();
	_M_sync(const_cast<char_type*>(_M_string.data()), 0, __len);
  405bee:	48 8b b4 24 48 04 00 	mov    0x448(%rsp),%rsi
  405bf5:	00 
  405bf6:	48 8d 7d 10          	lea    0x10(%rbp),%rdi
  405bfa:	31 c9                	xor    %ecx,%ecx
  405bfc:	31 d2                	xor    %edx,%edx
    protected:
      // Common initialization code goes here.
      void
      _M_stringbuf_init(ios_base::openmode __mode)
      {
	_M_mode = __mode;
  405bfe:	c7 84 24 40 04 00 00 	movl   $0x8,0x440(%rsp)
  405c05:	08 00 00 00 
	__size_type __len = 0;
	if (_M_mode & (ios_base::ate | ios_base::app))
	  __len = _M_string.size();
	_M_sync(const_cast<char_type*>(_M_string.data()), 0, __len);
  405c09:	e8 a2 e3 ff ff       	callq  403fb0 <_ZNSt15basic_stringbufIcSt11char_traitsIcESaIcEE7_M_syncEPcmm@plt>
      */
      explicit
      basic_istringstream(const __string_type& __str,
			  ios_base::openmode __mode = ios_base::in)
      : __istream_type(), _M_stringbuf(__str, __mode | ios_base::in)
      { this->init(&_M_stringbuf); }
  405c0e:	48 8d 75 10          	lea    0x10(%rbp),%rsi
  405c12:	48 8d 7d 60          	lea    0x60(%rbp),%rdi
  405c16:	e8 e5 e2 ff ff       	callq  403f00 <_ZNSt9basic_iosIcSt11char_traitsIcEE4initEPSt15basic_streambufIcS1_E@plt>
        {
            istringstream iss(_m[name]);
            T num = 0;
            iss >> num;
  405c1b:	48 8b 74 24 10       	mov    0x10(%rsp),%rsi
  405c20:	48 89 ef             	mov    %rbp,%rdi
        string name = section + "." + key;

        if (_m.find(name) != _m.end())
        {
            istringstream iss(_m[name]);
            T num = 0;
  405c23:	c7 84 24 b0 03 00 00 	movl   $0x0,0x3b0(%rsp)
  405c2a:	00 00 00 00 
            iss >> num;
  405c2e:	e8 6d e3 ff ff       	callq  403fa0 <_ZNSirsERi@plt>
       *
       *  The buffer is deallocated by the stringbuf object, not the
       *  formatting stream.
      */
      ~basic_istringstream()
      { }
  405c33:	49 8d 44 24 18       	lea    0x18(%r12),%rax
            return num;
  405c38:	44 8b b4 24 b0 03 00 	mov    0x3b0(%rsp),%r14d
  405c3f:	00 
  405c40:	48 89 84 24 f0 03 00 	mov    %rax,0x3f0(%rsp)
  405c47:	00 
  405c48:	49 8d 44 24 40       	lea    0x40(%r12),%rax
  405c4d:	48 89 84 24 50 04 00 	mov    %rax,0x450(%rsp)
  405c54:	00 
   *  For this class, open modes (of type @c ios_base::openmode) have
   *  @c in set if the input sequence can be read, and @c out set if the
   *  output sequence can be written.
  */
  template<typename _CharT, typename _Traits, typename _Alloc>
    class basic_stringbuf : public basic_streambuf<_CharT, _Traits>
  405c55:	48 8b 44 24 28       	mov    0x28(%rsp),%rax
  405c5a:	48 83 c0 10          	add    $0x10,%rax
  405c5e:	48 89 84 24 00 04 00 	mov    %rax,0x400(%rsp)
  405c65:	00 
  405c66:	48 8b 84 24 48 04 00 	mov    0x448(%rsp),%rax
  405c6d:	00 
      _M_data(_CharT* __p) _GLIBCXX_NOEXCEPT
      { return (_M_dataplus._M_p = __p); }

      _Rep*
      _M_rep() const _GLIBCXX_NOEXCEPT
      { return &((reinterpret_cast<_Rep*> (_M_data()))[-1]); }
  405c6e:	48 8d 78 e8          	lea    -0x18(%rax),%rdi

	void
	_M_dispose(const _Alloc& __a) _GLIBCXX_NOEXCEPT
	{
#if _GLIBCXX_FULLY_DYNAMIC_STRING == 0
	  if (__builtin_expect(this != &_S_empty_rep(), false))
  405c72:	48 39 df             	cmp    %rbx,%rdi
  405c75:	0f 85 df 1b 00 00    	jne    40785a <_ZN6rocket6Config4loadEPKc+0x2faa>

  public:
      /// Destructor deallocates no buffer space.
      virtual 
      ~basic_streambuf() 
      { }
  405c7b:	48 8b 44 24 20       	mov    0x20(%rsp),%rax
  405c80:	48 8d 7d 48          	lea    0x48(%rbp),%rdi
  405c84:	48 83 c0 10          	add    $0x10,%rax
  405c88:	48 89 84 24 00 04 00 	mov    %rax,0x400(%rsp)
  405c8f:	00 
  405c90:	e8 1b e5 ff ff       	callq  4041b0 <_ZNSt6localeD1Ev@plt>
       *
       *  This does very little apart from providing a virtual base dtor.
      */
      virtual
      ~basic_istream()
      { _M_gcount = streamsize(0); }
  405c95:	49 8b 47 e8          	mov    -0x18(%r15),%rax
  405c99:	48 8b 4c 24 58       	mov    0x58(%rsp),%rcx
       *
       *  The destructor does nothing.  More specifically, it does not
       *  destroy the streambuf held by rdbuf().
      */
      virtual
      ~basic_ios() { }
  405c9e:	48 8d 7d 60          	lea    0x60(%rbp),%rdi
  405ca2:	4c 89 bc 24 f0 03 00 	mov    %r15,0x3f0(%rsp)
  405ca9:	00 
  405caa:	48 89 8c 04 f0 03 00 	mov    %rcx,0x3f0(%rsp,%rax,1)
  405cb1:	00 
  405cb2:	49 8d 45 10          	lea    0x10(%r13),%rax
  405cb6:	48 89 84 24 50 04 00 	mov    %rax,0x450(%rsp)
  405cbd:	00 
  405cbe:	e8 9d e2 ff ff       	callq  403f60 <_ZNSt8ios_baseD2Ev@plt>
      // Data Members (private):
      mutable _Alloc_hider	_M_dataplus;

      _CharT*
      _M_data() const _GLIBCXX_NOEXCEPT
      { return  _M_dataplus._M_p; }
  405cc3:	48 8b 84 24 40 03 00 	mov    0x340(%rsp),%rax
  405cca:	00 
      _M_data(_CharT* __p) _GLIBCXX_NOEXCEPT
      { return (_M_dataplus._M_p = __p); }

      _Rep*
      _M_rep() const _GLIBCXX_NOEXCEPT
      { return &((reinterpret_cast<_Rep*> (_M_data()))[-1]); }
  405ccb:	48 8d 78 e8          	lea    -0x18(%rax),%rdi

	void
	_M_dispose(const _Alloc& __a) _GLIBCXX_NOEXCEPT
	{
#if _GLIBCXX_FULLY_DYNAMIC_STRING == 0
	  if (__builtin_expect(this != &_S_empty_rep(), false))
  405ccf:	48 39 df             	cmp    %rbx,%rdi
  405cd2:	0f 85 e8 11 00 00    	jne    406ec0 <_ZN6rocket6Config4loadEPKc+0x2610>
  405cd8:	48 8b 44 24 18       	mov    0x18(%rsp),%rax
  405cdd:	44 89 70 0c          	mov    %r14d,0xc(%rax)
      // Data Members (private):
      mutable _Alloc_hider	_M_dataplus;

      _CharT*
      _M_data() const _GLIBCXX_NOEXCEPT
      { return  _M_dataplus._M_p; }
  405ce1:	48 8b 84 24 f0 01 00 	mov    0x1f0(%rsp),%rax
  405ce8:	00 
      _M_data(_CharT* __p) _GLIBCXX_NOEXCEPT
      { return (_M_dataplus._M_p = __p); }

      _Rep*
      _M_rep() const _GLIBCXX_NOEXCEPT
      { return &((reinterpret_cast<_Rep*> (_M_data()))[-1]); }
  405ce9:	48 8d 78 e8          	lea    -0x18(%rax),%rdi

	void
	_M_dispose(const _Alloc& __a) _GLIBCXX_NOEXCEPT
	{
#if _GLIBCXX_FULLY_DYNAMIC_STRING == 0
	  if (__builtin_expect(this != &_S_empty_rep(), false))
  405ced:	48 39 df             	cmp    %rbx,%rdi
  405cf0:	0f 85 8a 11 00 00    	jne    406e80 <_ZN6rocket6Config4loadEPKc+0x25d0>
      // Data Members (private):
      mutable _Alloc_hider	_M_dataplus;

      _CharT*
      _M_data() const _GLIBCXX_NOEXCEPT
      { return  _M_dataplus._M_p; }
  405cf6:	48 8b 84 24 00 02 00 	mov    0x200(%rsp),%rax
  405cfd:	00 
      _M_data(_CharT* __p) _GLIBCXX_NOEXCEPT
      { return (_M_dataplus._M_p = __p); }

      _Rep*
      _M_rep() const _GLIBCXX_NOEXCEPT
      { return &((reinterpret_cast<_Rep*> (_M_data()))[-1]); }
  405cfe:	48 8d 78 e8          	lea    -0x18(%rax),%rdi

	void
	_M_dispose(const _Alloc& __a) _GLIBCXX_NOEXCEPT
	{
#if _GLIBCXX_FULLY_DYNAMIC_STRING == 0
	  if (__builtin_expect(this != &_S_empty_rep(), false))
  405d02:	48 39 df             	cmp    %rbx,%rdi
  405d05:	0f 85 35 11 00 00    	jne    406e40 <_ZN6rocket6Config4loadEPKc+0x2590>
    if (_net_nthreads <= 0)
  405d0b:	48 8b 44 24 18       	mov    0x18(%rsp),%rax
  405d10:	8b 70 0c             	mov    0xc(%rax),%esi
  405d13:	85 f6                	test   %esi,%esi
  405d15:	0f 8e 8d 0c 00 00    	jle    4069a8 <_ZN6rocket6Config4loadEPKc+0x20f8>
    {
        _net_nthreads = 3;
    }

    _work_nthreads = cr.GetNumber<int>("server", "work_nthreads", 10);
  405d1b:	48 8d ac 24 20 02 00 	lea    0x220(%rsp),%rbp
  405d22:	00 
  405d23:	48 8d 94 24 60 03 00 	lea    0x360(%rsp),%rdx
  405d2a:	00 
  405d2b:	48 8d 35 a7 a6 00 00 	lea    0xa6a7(%rip),%rsi        # 4103d9 <_IO_stdin_used+0x59>
  405d32:	48 89 ef             	mov    %rbp,%rdi
  405d35:	e8 e6 e0 ff ff       	callq  403e20 <_ZNSsC1EPKcRKSaIcE@plt>
  405d3a:	4c 8d a4 24 10 02 00 	lea    0x210(%rsp),%r12
  405d41:	00 
  405d42:	48 8b 54 24 50       	mov    0x50(%rsp),%rdx
  405d47:	48 8d 35 4a b0 00 00 	lea    0xb04a(%rip),%rsi        # 410d98 <_ZZN6rocket5MutexD4EvE19__PRETTY_FUNCTION__+0x78>
  405d4e:	4c 89 e7             	mov    %r12,%rdi
  405d51:	e8 ca e0 ff ff       	callq  403e20 <_ZNSsC1EPKcRKSaIcE@plt>
  template<typename _CharT, typename _Traits, typename _Alloc>
    inline basic_string<_CharT, _Traits, _Alloc>
    operator+(const basic_string<_CharT, _Traits, _Alloc>& __lhs,
	     const _CharT* __rhs)
    {
      basic_string<_CharT, _Traits, _Alloc> __str(__lhs);
  405d56:	4c 8b 74 24 40       	mov    0x40(%rsp),%r14
  405d5b:	4c 89 e6             	mov    %r12,%rsi
  405d5e:	4c 89 f7             	mov    %r14,%rdi
  405d61:	e8 5a df ff ff       	callq  403cc0 <_ZNSsC1ERKSs@plt>
       */
      basic_string&
      append(const _CharT* __s)
      {
	__glibcxx_requires_string(__s);
	return this->append(__s, traits_type::length(__s));
  405d66:	48 8d 35 47 a6 00 00 	lea    0xa647(%rip),%rsi        # 4103b4 <_IO_stdin_used+0x34>
  405d6d:	ba 01 00 00 00       	mov    $0x1,%edx
  405d72:	4c 89 f7             	mov    %r14,%rdi
  405d75:	e8 d6 dc ff ff       	callq  403a50 <_ZNSs6appendEPKcm@plt>
#if __cplusplus >= 201103L
  template<typename _CharT, typename _Traits, typename _Alloc>
    inline basic_string<_CharT, _Traits, _Alloc>
    operator+(basic_string<_CharT, _Traits, _Alloc>&& __lhs,
	      const basic_string<_CharT, _Traits, _Alloc>& __rhs)
    { return std::move(__lhs.append(__rhs)); }
  405d7a:	48 89 ee             	mov    %rbp,%rsi
  405d7d:	4c 89 f7             	mov    %r14,%rdi
  405d80:	e8 bb e4 ff ff       	callq  404240 <_ZNSs6appendERKSs@plt>
	_CharT*
	_M_clone(const _Alloc&, size_type __res = 0);
      };

      // Use empty-base optimization: http://www.cantrip.org/emptyopt.html
      struct _Alloc_hider : _Alloc
  405d85:	48 8b 10             	mov    (%rax),%rdx
  405d88:	48 89 94 24 70 03 00 	mov    %rdx,0x370(%rsp)
  405d8f:	00 
      _M_data() const _GLIBCXX_NOEXCEPT
      { return  _M_dataplus._M_p; }

      _CharT*
      _M_data(_CharT* __p) _GLIBCXX_NOEXCEPT
      { return (_M_dataplus._M_p = __p); }
  405d90:	48 8d 53 18          	lea    0x18(%rbx),%rdx
  405d94:	48 89 10             	mov    %rdx,(%rax)
      // Data Members (private):
      mutable _Alloc_hider	_M_dataplus;

      _CharT*
      _M_data() const _GLIBCXX_NOEXCEPT
      { return  _M_dataplus._M_p; }
  405d97:	48 8b 84 24 80 03 00 	mov    0x380(%rsp),%rax
  405d9e:	00 
      _M_data(_CharT* __p) _GLIBCXX_NOEXCEPT
      { return (_M_dataplus._M_p = __p); }

      _Rep*
      _M_rep() const _GLIBCXX_NOEXCEPT
      { return &((reinterpret_cast<_Rep*> (_M_data()))[-1]); }
  405d9f:	48 8d 78 e8          	lea    -0x18(%rax),%rdi

	void
	_M_dispose(const _Alloc& __a) _GLIBCXX_NOEXCEPT
	{
#if _GLIBCXX_FULLY_DYNAMIC_STRING == 0
	  if (__builtin_expect(this != &_S_empty_rep(), false))
  405da3:	48 39 df             	cmp    %rbx,%rdi
  405da6:	0f 85 d4 11 00 00    	jne    406f80 <_ZN6rocket6Config4loadEPKc+0x26d0>
       *  pointing to the sought after %pair.  If unsuccessful it returns the
       *  past-the-end ( @c end() ) iterator.
       */
      iterator
      find(const key_type& __x)
      { return _M_t.find(__x); }
  405dac:	4c 8b 74 24 08       	mov    0x8(%rsp),%r14
  405db1:	48 8d 84 24 70 03 00 	lea    0x370(%rsp),%rax
  405db8:	00 
  405db9:	48 89 c6             	mov    %rax,%rsi
  405dbc:	48 89 44 24 50       	mov    %rax,0x50(%rsp)
  405dc1:	4c 89 f7             	mov    %r14,%rdi
                                     const string& key,
                                     T default_value = 0)
    {
        string name = section + "." + key;

        if (_m.find(name) != _m.end())
  405dc4:	4d 8d 76 08          	lea    0x8(%r14),%r14
  405dc8:	e8 33 28 00 00       	callq  408600 <_ZNSt8_Rb_treeISsSt4pairIKSsSsESt10_Select1stIS2_ESt4lessISsESaIS2_EE4findERS1_>
  405dcd:	49 39 c6             	cmp    %rax,%r14
  405dd0:	0f 84 92 0b 00 00    	je     406968 <_ZN6rocket6Config4loadEPKc+0x20b8>
  405dd6:	4c 8b ac 24 d0 03 00 	mov    0x3d0(%rsp),%r13
  405ddd:	00 
  405dde:	4d 85 ed             	test   %r13,%r13
  405de1:	0f 84 a5 09 00 00    	je     40678c <_ZN6rocket6Config4loadEPKc+0x1edc>
  405de7:	48 8b ac 24 70 03 00 	mov    0x370(%rsp),%rbp
  405dee:	00 
  405def:	4c 8b 7d e8          	mov    -0x18(%rbp),%r15
  405df3:	eb 16                	jmp    405e0b <_ZN6rocket6Config4loadEPKc+0x155b>
  405df5:	0f 1f 00             	nopl   (%rax)
	if (__d > __gnu_cxx::__numeric_traits<int>::__max)
	  return __gnu_cxx::__numeric_traits<int>::__max;
	else if (__d < __gnu_cxx::__numeric_traits<int>::__min)
	  return __gnu_cxx::__numeric_traits<int>::__min;
	else
	  return int(__d);
  405df8:	44 89 e0             	mov    %r12d,%eax
	if (!_M_impl._M_key_compare(_S_key(__x), __k))
  405dfb:	85 c0                	test   %eax,%eax
  405dfd:	78 3f                	js     405e3e <_ZN6rocket6Config4loadEPKc+0x158e>
		      _Compare, _Alloc>::iterator
    _Rb_tree<_Key, _Val, _KeyOfValue, _Compare, _Alloc>::
    _M_lower_bound(_Link_type __x, _Link_type __y,
		   const _Key& __k)
    {
      while (__x != 0)
  405dff:	4d 89 ee             	mov    %r13,%r14
	if (!_M_impl._M_key_compare(_S_key(__x), __k))
	  __y = __x, __x = _S_left(__x);
  405e02:	4d 8b 6d 10          	mov    0x10(%r13),%r13
		      _Compare, _Alloc>::iterator
    _Rb_tree<_Key, _Val, _KeyOfValue, _Compare, _Alloc>::
    _M_lower_bound(_Link_type __x, _Link_type __y,
		   const _Key& __k)
    {
      while (__x != 0)
  405e06:	4d 85 ed             	test   %r13,%r13
  405e09:	74 3c                	je     405e47 <_ZN6rocket6Config4loadEPKc+0x1597>
      // Data Members (private):
      mutable _Alloc_hider	_M_dataplus;

      _CharT*
      _M_data() const _GLIBCXX_NOEXCEPT
      { return  _M_dataplus._M_p; }
  405e0b:	49 8b 7d 20          	mov    0x20(%r13),%rdi
  405e0f:	4c 89 fa             	mov    %r15,%rdx
  405e12:	48 89 ee             	mov    %rbp,%rsi
      // Capacity:
      ///  Returns the number of characters in the string, not including any
      ///  null-termination.
      size_type
      size() const _GLIBCXX_NOEXCEPT
      { return _M_rep()->_M_length; }
  405e15:	4c 8b 67 e8          	mov    -0x18(%rdi),%r12
  405e19:	4d 39 fc             	cmp    %r15,%r12
  405e1c:	49 0f 46 d4          	cmovbe %r12,%rdx
  405e20:	e8 cb e1 ff ff       	callq  403ff0 <memcmp@plt>
	const size_type __size = this->size();
	const size_type __osize = __str.size();
	const size_type __len = std::min(__size, __osize);

	int __r = traits_type::compare(_M_data(), __str.data(), __len);
	if (!__r)
  405e25:	85 c0                	test   %eax,%eax
  405e27:	75 d2                	jne    405dfb <_ZN6rocket6Config4loadEPKc+0x154b>
      { _M_copy(__p, __k1, __k2 - __k1); }

      static int
      _S_compare(size_type __n1, size_type __n2) _GLIBCXX_NOEXCEPT
      {
	const difference_type __d = difference_type(__n1 - __n2);
  405e29:	4d 29 fc             	sub    %r15,%r12

	if (__d > __gnu_cxx::__numeric_traits<int>::__max)
  405e2c:	49 81 fc ff ff ff 7f 	cmp    $0x7fffffff,%r12
  405e33:	7f ca                	jg     405dff <_ZN6rocket6Config4loadEPKc+0x154f>
	  return __gnu_cxx::__numeric_traits<int>::__max;
	else if (__d < __gnu_cxx::__numeric_traits<int>::__min)
  405e35:	49 81 fc 00 00 00 80 	cmp    $0xffffffff80000000,%r12
  405e3c:	7d ba                	jge    405df8 <_ZN6rocket6Config4loadEPKc+0x1548>
  405e3e:	4d 8b 6d 18          	mov    0x18(%r13),%r13
  405e42:	4d 85 ed             	test   %r13,%r13
  405e45:	75 c4                	jne    405e0b <_ZN6rocket6Config4loadEPKc+0x155b>
	// concept requirements
	__glibcxx_function_requires(_DefaultConstructibleConcept<mapped_type>)

	iterator __i = lower_bound(__k);
	// __i->first is greater than or equivalent to __k.
	if (__i == end() || key_comp()(__k, (*__i).first))
  405e47:	48 8b 44 24 08       	mov    0x8(%rsp),%rax
  405e4c:	48 83 c0 08          	add    $0x8,%rax
  405e50:	49 39 c6             	cmp    %rax,%r14
  405e53:	0f 84 33 09 00 00    	je     40678c <_ZN6rocket6Config4loadEPKc+0x1edc>
      // Data Members (private):
      mutable _Alloc_hider	_M_dataplus;

      _CharT*
      _M_data() const _GLIBCXX_NOEXCEPT
      { return  _M_dataplus._M_p; }
  405e59:	49 8b 76 20          	mov    0x20(%r14),%rsi
  405e5d:	4c 89 fa             	mov    %r15,%rdx
  405e60:	48 89 ef             	mov    %rbp,%rdi
      // Capacity:
      ///  Returns the number of characters in the string, not including any
      ///  null-termination.
      size_type
      size() const _GLIBCXX_NOEXCEPT
      { return _M_rep()->_M_length; }
  405e63:	4c 8b 66 e8          	mov    -0x18(%rsi),%r12
  405e67:	4d 39 fc             	cmp    %r15,%r12
  405e6a:	49 0f 46 d4          	cmovbe %r12,%rdx
  405e6e:	e8 7d e1 ff ff       	callq  403ff0 <memcmp@plt>
	const size_type __size = this->size();
	const size_type __osize = __str.size();
	const size_type __len = std::min(__size, __osize);

	int __r = traits_type::compare(_M_data(), __str.data(), __len);
	if (!__r)
  405e73:	85 c0                	test   %eax,%eax
  405e75:	0f 85 09 09 00 00    	jne    406784 <_ZN6rocket6Config4loadEPKc+0x1ed4>
      { _M_copy(__p, __k1, __k2 - __k1); }

      static int
      _S_compare(size_type __n1, size_type __n2) _GLIBCXX_NOEXCEPT
      {
	const difference_type __d = difference_type(__n1 - __n2);
  405e7b:	4d 29 e7             	sub    %r12,%r15

	if (__d > __gnu_cxx::__numeric_traits<int>::__max)
  405e7e:	49 81 ff ff ff ff 7f 	cmp    $0x7fffffff,%r15
  405e85:	0f 8e ed 08 00 00    	jle    406778 <_ZN6rocket6Config4loadEPKc+0x1ec8>
       *  The default constructor does nothing and is not normally
       *  accessible to users.
      */
      basic_ios()
      : ios_base(), _M_tie(0), _M_fill(char_type()), _M_fill_init(false), 
	_M_streambuf(0), _M_ctype(0), _M_num_put(0), _M_num_get(0)
  405e8b:	48 8d ac 24 f0 03 00 	lea    0x3f0(%rsp),%rbp
  405e92:	00 
  405e93:	48 8d 7d 60          	lea    0x60(%rbp),%rdi
  405e97:	e8 84 dc ff ff       	callq  403b20 <_ZNSt8ios_baseC2Ev@plt>
  405e9c:	4c 8b 2d 0d e0 20 00 	mov    0x20e00d(%rip),%r13        # 613eb0 <_DYNAMIC+0x228>
  405ea3:	c6 84 24 30 05 00 00 	movb   $0x0,0x530(%rsp)
  405eaa:	00 
      //@}

    protected:
      basic_istream()
      : _M_gcount(streamsize(0))
      { this->init(0); }
  405eab:	48 89 ef             	mov    %rbp,%rdi
  405eae:	48 c7 84 24 28 05 00 	movq   $0x0,0x528(%rsp)
  405eb5:	00 00 00 00 00 
  405eba:	c6 84 24 31 05 00 00 	movb   $0x0,0x531(%rsp)
  405ec1:	00 
  405ec2:	31 f6                	xor    %esi,%esi
  405ec4:	48 c7 84 24 38 05 00 	movq   $0x0,0x538(%rsp)
  405ecb:	00 00 00 00 00 
  405ed0:	48 c7 84 24 40 05 00 	movq   $0x0,0x540(%rsp)
  405ed7:	00 00 00 00 00 
  405edc:	49 8d 45 10          	lea    0x10(%r13),%rax
  405ee0:	48 c7 84 24 48 05 00 	movq   $0x0,0x548(%rsp)
  405ee7:	00 00 00 00 00 
  405eec:	48 c7 84 24 50 05 00 	movq   $0x0,0x550(%rsp)
  405ef3:	00 00 00 00 00 
  405ef8:	48 89 84 24 50 04 00 	mov    %rax,0x450(%rsp)
  405eff:	00 
      seekg(off_type, ios_base::seekdir);
      //@}

    protected:
      basic_istream()
      : _M_gcount(streamsize(0))
  405f00:	48 8b 05 c1 df 20 00 	mov    0x20dfc1(%rip),%rax        # 613ec8 <_DYNAMIC+0x240>
  405f07:	4c 8b 78 08          	mov    0x8(%rax),%r15
  405f0b:	48 8b 40 10          	mov    0x10(%rax),%rax
  405f0f:	48 89 c1             	mov    %rax,%rcx
  405f12:	48 89 44 24 58       	mov    %rax,0x58(%rsp)
  405f17:	49 8b 47 e8          	mov    -0x18(%r15),%rax
  405f1b:	4c 89 bc 24 f0 03 00 	mov    %r15,0x3f0(%rsp)
  405f22:	00 
  405f23:	48 89 8c 04 f0 03 00 	mov    %rcx,0x3f0(%rsp,%rax,1)
  405f2a:	00 
  405f2b:	48 c7 84 24 f8 03 00 	movq   $0x0,0x3f8(%rsp)
  405f32:	00 00 00 00 00 
      { this->init(0); }
  405f37:	49 03 7f e8          	add    -0x18(%r15),%rdi
  405f3b:	e8 c0 df ff ff       	callq  403f00 <_ZNSt9basic_iosIcSt11char_traitsIcEE4initEPSt15basic_streambufIcS1_E@plt>
       *  string class does its own memory management.
      */
      explicit
      basic_istringstream(const __string_type& __str,
			  ios_base::openmode __mode = ios_base::in)
      : __istream_type(), _M_stringbuf(__str, __mode | ios_base::in)
  405f40:	4c 8b 25 21 e0 20 00 	mov    0x20e021(%rip),%r12        # 613f68 <_DYNAMIC+0x2e0>
       *  - this is not an error
      */
      basic_streambuf()
      : _M_in_beg(0), _M_in_cur(0), _M_in_end(0), 
      _M_out_beg(0), _M_out_cur(0), _M_out_end(0),
      _M_buf_locale(locale()) 
  405f47:	48 8d 7d 48          	lea    0x48(%rbp),%rdi
  405f4b:	48 c7 84 24 08 04 00 	movq   $0x0,0x408(%rsp)
  405f52:	00 00 00 00 00 
  405f57:	48 c7 84 24 10 04 00 	movq   $0x0,0x410(%rsp)
  405f5e:	00 00 00 00 00 
  405f63:	48 c7 84 24 18 04 00 	movq   $0x0,0x418(%rsp)
  405f6a:	00 00 00 00 00 
  405f6f:	48 c7 84 24 20 04 00 	movq   $0x0,0x420(%rsp)
  405f76:	00 00 00 00 00 
  405f7b:	48 c7 84 24 28 04 00 	movq   $0x0,0x428(%rsp)
  405f82:	00 00 00 00 00 
  405f87:	49 8d 44 24 18       	lea    0x18(%r12),%rax
  405f8c:	48 c7 84 24 30 04 00 	movq   $0x0,0x430(%rsp)
  405f93:	00 00 00 00 00 
  405f98:	48 89 84 24 f0 03 00 	mov    %rax,0x3f0(%rsp)
  405f9f:	00 
  405fa0:	49 8d 44 24 40       	lea    0x40(%r12),%rax
  405fa5:	48 89 84 24 50 04 00 	mov    %rax,0x450(%rsp)
  405fac:	00 
  405fad:	48 8b 05 a4 df 20 00 	mov    0x20dfa4(%rip),%rax        # 613f58 <_DYNAMIC+0x2d0>
  405fb4:	48 89 44 24 20       	mov    %rax,0x20(%rsp)
  405fb9:	48 83 c0 10          	add    $0x10,%rax
  405fbd:	48 89 84 24 00 04 00 	mov    %rax,0x400(%rsp)
  405fc4:	00 
  405fc5:	e8 b6 de ff ff       	callq  403e80 <_ZNSt6localeC1Ev@plt>
       *  own default ctor.
      */
      explicit
      basic_stringbuf(const __string_type& __str,
		      ios_base::openmode __mode = ios_base::in | ios_base::out)
      : __streambuf_type(), _M_mode(), _M_string(__str.data(), __str.size())
  405fca:	48 8b 05 d7 de 20 00 	mov    0x20ded7(%rip),%rax        # 613ea8 <_DYNAMIC+0x220>
  405fd1:	48 8b 4c 24 10       	mov    0x10(%rsp),%rcx
  405fd6:	48 8d 7d 58          	lea    0x58(%rbp),%rdi
  405fda:	c7 84 24 40 04 00 00 	movl   $0x0,0x440(%rsp)
  405fe1:	00 00 00 00 
  405fe5:	48 89 44 24 28       	mov    %rax,0x28(%rsp)
  405fea:	48 83 c0 10          	add    $0x10,%rax
  405fee:	48 89 84 24 00 04 00 	mov    %rax,0x400(%rsp)
  405ff5:	00 
      // Data Members (private):
      mutable _Alloc_hider	_M_dataplus;

      _CharT*
      _M_data() const _GLIBCXX_NOEXCEPT
      { return  _M_dataplus._M_p; }
  405ff6:	49 8b 76 28          	mov    0x28(%r14),%rsi
  405ffa:	48 8b 56 e8          	mov    -0x18(%rsi),%rdx
  405ffe:	e8 4d db ff ff       	callq  403b50 <_ZNSsC1EPKcmRKSaIcE@plt>
      {
	_M_mode = __mode;
	__size_type __len = 0;
	if (_M_mode & (ios_base::ate | ios_base::app))
	  __len = _M_string.size();
	_M_sync(const_cast<char_type*>(_M_string.data()), 0, __len);
  406003:	48 8b b4 24 48 04 00 	mov    0x448(%rsp),%rsi
  40600a:	00 
  40600b:	48 8d 7d 10          	lea    0x10(%rbp),%rdi
  40600f:	31 c9                	xor    %ecx,%ecx
  406011:	31 d2                	xor    %edx,%edx
    protected:
      // Common initialization code goes here.
      void
      _M_stringbuf_init(ios_base::openmode __mode)
      {
	_M_mode = __mode;
  406013:	c7 84 24 40 04 00 00 	movl   $0x8,0x440(%rsp)
  40601a:	08 00 00 00 
	__size_type __len = 0;
	if (_M_mode & (ios_base::ate | ios_base::app))
	  __len = _M_string.size();
	_M_sync(const_cast<char_type*>(_M_string.data()), 0, __len);
  40601e:	e8 8d df ff ff       	callq  403fb0 <_ZNSt15basic_stringbufIcSt11char_traitsIcESaIcEE7_M_syncEPcmm@plt>
      */
      explicit
      basic_istringstream(const __string_type& __str,
			  ios_base::openmode __mode = ios_base::in)
      : __istream_type(), _M_stringbuf(__str, __mode | ios_base::in)
      { this->init(&_M_stringbuf); }
  406023:	48 8d 75 10          	lea    0x10(%rbp),%rsi
  406027:	48 8d 7d 60          	lea    0x60(%rbp),%rdi
  40602b:	e8 d0 de ff ff       	callq  403f00 <_ZNSt9basic_iosIcSt11char_traitsIcEE4initEPSt15basic_streambufIcS1_E@plt>
        {
            istringstream iss(_m[name]);
            T num = 0;
            iss >> num;
  406030:	48 8b 74 24 10       	mov    0x10(%rsp),%rsi
  406035:	48 89 ef             	mov    %rbp,%rdi
        string name = section + "." + key;

        if (_m.find(name) != _m.end())
        {
            istringstream iss(_m[name]);
            T num = 0;
  406038:	c7 84 24 b0 03 00 00 	movl   $0x0,0x3b0(%rsp)
  40603f:	00 00 00 00 
            iss >> num;
  406043:	e8 58 df ff ff       	callq  403fa0 <_ZNSirsERi@plt>
       *
       *  The buffer is deallocated by the stringbuf object, not the
       *  formatting stream.
      */
      ~basic_istringstream()
      { }
  406048:	49 8d 44 24 18       	lea    0x18(%r12),%rax
            return num;
  40604d:	44 8b b4 24 b0 03 00 	mov    0x3b0(%rsp),%r14d
  406054:	00 
  406055:	48 89 84 24 f0 03 00 	mov    %rax,0x3f0(%rsp)
  40605c:	00 
  40605d:	49 8d 44 24 40       	lea    0x40(%r12),%rax
  406062:	48 89 84 24 50 04 00 	mov    %rax,0x450(%rsp)
  406069:	00 
   *  For this class, open modes (of type @c ios_base::openmode) have
   *  @c in set if the input sequence can be read, and @c out set if the
   *  output sequence can be written.
  */
  template<typename _CharT, typename _Traits, typename _Alloc>
    class basic_stringbuf : public basic_streambuf<_CharT, _Traits>
  40606a:	48 8b 44 24 28       	mov    0x28(%rsp),%rax
  40606f:	48 83 c0 10          	add    $0x10,%rax
  406073:	48 89 84 24 00 04 00 	mov    %rax,0x400(%rsp)
  40607a:	00 
  40607b:	48 8b 84 24 48 04 00 	mov    0x448(%rsp),%rax
  406082:	00 
      _M_data(_CharT* __p) _GLIBCXX_NOEXCEPT
      { return (_M_dataplus._M_p = __p); }

      _Rep*
      _M_rep() const _GLIBCXX_NOEXCEPT
      { return &((reinterpret_cast<_Rep*> (_M_data()))[-1]); }
  406083:	48 8d 78 e8          	lea    -0x18(%rax),%rdi

	void
	_M_dispose(const _Alloc& __a) _GLIBCXX_NOEXCEPT
	{
#if _GLIBCXX_FULLY_DYNAMIC_STRING == 0
	  if (__builtin_expect(this != &_S_empty_rep(), false))
  406087:	48 39 df             	cmp    %rbx,%rdi
  40608a:	0f 85 fb 17 00 00    	jne    40788b <_ZN6rocket6Config4loadEPKc+0x2fdb>

  public:
      /// Destructor deallocates no buffer space.
      virtual 
      ~basic_streambuf() 
      { }
  406090:	48 8b 44 24 20       	mov    0x20(%rsp),%rax
  406095:	48 8d 7d 48          	lea    0x48(%rbp),%rdi
  406099:	48 83 c0 10          	add    $0x10,%rax
  40609d:	48 89 84 24 00 04 00 	mov    %rax,0x400(%rsp)
  4060a4:	00 
  4060a5:	e8 06 e1 ff ff       	callq  4041b0 <_ZNSt6localeD1Ev@plt>
       *
       *  This does very little apart from providing a virtual base dtor.
      */
      virtual
      ~basic_istream()
      { _M_gcount = streamsize(0); }
  4060aa:	49 8b 47 e8          	mov    -0x18(%r15),%rax
  4060ae:	48 8b 4c 24 58       	mov    0x58(%rsp),%rcx
       *
       *  The destructor does nothing.  More specifically, it does not
       *  destroy the streambuf held by rdbuf().
      */
      virtual
      ~basic_ios() { }
  4060b3:	48 8d 7d 60          	lea    0x60(%rbp),%rdi
  4060b7:	4c 89 bc 24 f0 03 00 	mov    %r15,0x3f0(%rsp)
  4060be:	00 
  4060bf:	48 89 8c 04 f0 03 00 	mov    %rcx,0x3f0(%rsp,%rax,1)
  4060c6:	00 
  4060c7:	49 8d 45 10          	lea    0x10(%r13),%rax
  4060cb:	48 89 84 24 50 04 00 	mov    %rax,0x450(%rsp)
  4060d2:	00 
  4060d3:	e8 88 de ff ff       	callq  403f60 <_ZNSt8ios_baseD2Ev@plt>
      // Data Members (private):
      mutable _Alloc_hider	_M_dataplus;

      _CharT*
      _M_data() const _GLIBCXX_NOEXCEPT
      { return  _M_dataplus._M_p; }
  4060d8:	48 8b 84 24 70 03 00 	mov    0x370(%rsp),%rax
  4060df:	00 
      _M_data(_CharT* __p) _GLIBCXX_NOEXCEPT
      { return (_M_dataplus._M_p = __p); }

      _Rep*
      _M_rep() const _GLIBCXX_NOEXCEPT
      { return &((reinterpret_cast<_Rep*> (_M_data()))[-1]); }
  4060e0:	48 8d 78 e8          	lea    -0x18(%rax),%rdi

	void
	_M_dispose(const _Alloc& __a) _GLIBCXX_NOEXCEPT
	{
#if _GLIBCXX_FULLY_DYNAMIC_STRING == 0
	  if (__builtin_expect(this != &_S_empty_rep(), false))
  4060e4:	48 39 df             	cmp    %rbx,%rdi
  4060e7:	0f 85 13 0d 00 00    	jne    406e00 <_ZN6rocket6Config4loadEPKc+0x2550>
  4060ed:	48 8b 44 24 18       	mov    0x18(%rsp),%rax
  4060f2:	44 89 70 10          	mov    %r14d,0x10(%rax)
      // Data Members (private):
      mutable _Alloc_hider	_M_dataplus;

      _CharT*
      _M_data() const _GLIBCXX_NOEXCEPT
      { return  _M_dataplus._M_p; }
  4060f6:	48 8b 84 24 10 02 00 	mov    0x210(%rsp),%rax
  4060fd:	00 
      _M_data(_CharT* __p) _GLIBCXX_NOEXCEPT
      { return (_M_dataplus._M_p = __p); }

      _Rep*
      _M_rep() const _GLIBCXX_NOEXCEPT
      { return &((reinterpret_cast<_Rep*> (_M_data()))[-1]); }
  4060fe:	48 8d 78 e8          	lea    -0x18(%rax),%rdi

	void
	_M_dispose(const _Alloc& __a) _GLIBCXX_NOEXCEPT
	{
#if _GLIBCXX_FULLY_DYNAMIC_STRING == 0
	  if (__builtin_expect(this != &_S_empty_rep(), false))
  406102:	48 39 df             	cmp    %rbx,%rdi
  406105:	0f 85 b5 0c 00 00    	jne    406dc0 <_ZN6rocket6Config4loadEPKc+0x2510>
      // Data Members (private):
      mutable _Alloc_hider	_M_dataplus;

      _CharT*
      _M_data() const _GLIBCXX_NOEXCEPT
      { return  _M_dataplus._M_p; }
  40610b:	48 8b 84 24 20 02 00 	mov    0x220(%rsp),%rax
  406112:	00 
      _M_data(_CharT* __p) _GLIBCXX_NOEXCEPT
      { return (_M_dataplus._M_p = __p); }

      _Rep*
      _M_rep() const _GLIBCXX_NOEXCEPT
      { return &((reinterpret_cast<_Rep*> (_M_data()))[-1]); }
  406113:	48 8d 78 e8          	lea    -0x18(%rax),%rdi

	void
	_M_dispose(const _Alloc& __a) _GLIBCXX_NOEXCEPT
	{
#if _GLIBCXX_FULLY_DYNAMIC_STRING == 0
	  if (__builtin_expect(this != &_S_empty_rep(), false))
  406117:	48 39 df             	cmp    %rbx,%rdi
  40611a:	0f 85 60 0c 00 00    	jne    406d80 <_ZN6rocket6Config4loadEPKc+0x24d0>
    if (_work_nthreads <= 0)
  406120:	48 8b 44 24 18       	mov    0x18(%rsp),%rax
  406125:	8b 48 10             	mov    0x10(%rax),%ecx
  406128:	85 c9                	test   %ecx,%ecx
  40612a:	0f 8e 88 08 00 00    	jle    4069b8 <_ZN6rocket6Config4loadEPKc+0x2108>
    {
        _work_nthreads = 3;
    }

    _timeout = cr.GetNumber<int>("server", "timeout", 10);
  406130:	48 8d ac 24 40 02 00 	lea    0x240(%rsp),%rbp
  406137:	00 
  406138:	48 8b 54 24 40       	mov    0x40(%rsp),%rdx
  40613d:	48 8d 35 a3 a2 00 00 	lea    0xa2a3(%rip),%rsi        # 4103e7 <_IO_stdin_used+0x67>
  406144:	48 89 ef             	mov    %rbp,%rdi
  406147:	e8 d4 dc ff ff       	callq  403e20 <_ZNSsC1EPKcRKSaIcE@plt>
  40614c:	4c 8d a4 24 30 02 00 	lea    0x230(%rsp),%r12
  406153:	00 
  406154:	48 8b 54 24 50       	mov    0x50(%rsp),%rdx
  406159:	48 8d 35 38 ac 00 00 	lea    0xac38(%rip),%rsi        # 410d98 <_ZZN6rocket5MutexD4EvE19__PRETTY_FUNCTION__+0x78>
  406160:	4c 89 e7             	mov    %r12,%rdi
  406163:	e8 b8 dc ff ff       	callq  403e20 <_ZNSsC1EPKcRKSaIcE@plt>
  template<typename _CharT, typename _Traits, typename _Alloc>
    inline basic_string<_CharT, _Traits, _Alloc>
    operator+(const basic_string<_CharT, _Traits, _Alloc>& __lhs,
	     const _CharT* __rhs)
    {
      basic_string<_CharT, _Traits, _Alloc> __str(__lhs);
  406168:	4c 8b 74 24 10       	mov    0x10(%rsp),%r14
  40616d:	4c 89 e6             	mov    %r12,%rsi
  406170:	4c 89 f7             	mov    %r14,%rdi
  406173:	e8 48 db ff ff       	callq  403cc0 <_ZNSsC1ERKSs@plt>
       */
      basic_string&
      append(const _CharT* __s)
      {
	__glibcxx_requires_string(__s);
	return this->append(__s, traits_type::length(__s));
  406178:	48 8d 35 35 a2 00 00 	lea    0xa235(%rip),%rsi        # 4103b4 <_IO_stdin_used+0x34>
  40617f:	ba 01 00 00 00       	mov    $0x1,%edx
  406184:	4c 89 f7             	mov    %r14,%rdi
  406187:	e8 c4 d8 ff ff       	callq  403a50 <_ZNSs6appendEPKcm@plt>
#if __cplusplus >= 201103L
  template<typename _CharT, typename _Traits, typename _Alloc>
    inline basic_string<_CharT, _Traits, _Alloc>
    operator+(basic_string<_CharT, _Traits, _Alloc>&& __lhs,
	      const basic_string<_CharT, _Traits, _Alloc>& __rhs)
    { return std::move(__lhs.append(__rhs)); }
  40618c:	48 89 ee             	mov    %rbp,%rsi
  40618f:	4c 89 f7             	mov    %r14,%rdi
  406192:	e8 a9 e0 ff ff       	callq  404240 <_ZNSs6appendERKSs@plt>
	_CharT*
	_M_clone(const _Alloc&, size_type __res = 0);
      };

      // Use empty-base optimization: http://www.cantrip.org/emptyopt.html
      struct _Alloc_hider : _Alloc
  406197:	48 8b 10             	mov    (%rax),%rdx
  40619a:	48 89 94 24 a0 03 00 	mov    %rdx,0x3a0(%rsp)
  4061a1:	00 
      _M_data() const _GLIBCXX_NOEXCEPT
      { return  _M_dataplus._M_p; }

      _CharT*
      _M_data(_CharT* __p) _GLIBCXX_NOEXCEPT
      { return (_M_dataplus._M_p = __p); }
  4061a2:	48 8d 53 18          	lea    0x18(%rbx),%rdx
  4061a6:	48 89 10             	mov    %rdx,(%rax)
      // Data Members (private):
      mutable _Alloc_hider	_M_dataplus;

      _CharT*
      _M_data() const _GLIBCXX_NOEXCEPT
      { return  _M_dataplus._M_p; }
  4061a9:	48 8b 84 24 b0 03 00 	mov    0x3b0(%rsp),%rax
  4061b0:	00 
      _M_data(_CharT* __p) _GLIBCXX_NOEXCEPT
      { return (_M_dataplus._M_p = __p); }

      _Rep*
      _M_rep() const _GLIBCXX_NOEXCEPT
      { return &((reinterpret_cast<_Rep*> (_M_data()))[-1]); }
  4061b1:	48 8d 78 e8          	lea    -0x18(%rax),%rdi

	void
	_M_dispose(const _Alloc& __a) _GLIBCXX_NOEXCEPT
	{
#if _GLIBCXX_FULLY_DYNAMIC_STRING == 0
	  if (__builtin_expect(this != &_S_empty_rep(), false))
  4061b5:	48 39 df             	cmp    %rbx,%rdi
  4061b8:	0f 85 82 0b 00 00    	jne    406d40 <_ZN6rocket6Config4loadEPKc+0x2490>
       *  pointing to the sought after %pair.  If unsuccessful it returns the
       *  past-the-end ( @c end() ) iterator.
       */
      iterator
      find(const key_type& __x)
      { return _M_t.find(__x); }
  4061be:	4c 8b 74 24 08       	mov    0x8(%rsp),%r14
  4061c3:	48 8b 74 24 38       	mov    0x38(%rsp),%rsi
  4061c8:	4c 89 f7             	mov    %r14,%rdi
                                     const string& key,
                                     T default_value = 0)
    {
        string name = section + "." + key;

        if (_m.find(name) != _m.end())
  4061cb:	4d 8d 76 08          	lea    0x8(%r14),%r14
  4061cf:	e8 2c 24 00 00       	callq  408600 <_ZNSt8_Rb_treeISsSt4pairIKSsSsESt10_Select1stIS2_ESt4lessISsESaIS2_EE4findERS1_>
  4061d4:	49 39 c6             	cmp    %rax,%r14
  4061d7:	0f 84 6b 07 00 00    	je     406948 <_ZN6rocket6Config4loadEPKc+0x2098>
  4061dd:	4c 8b ac 24 d0 03 00 	mov    0x3d0(%rsp),%r13
  4061e4:	00 
  4061e5:	4d 85 ed             	test   %r13,%r13
  4061e8:	0f 84 4e 05 00 00    	je     40673c <_ZN6rocket6Config4loadEPKc+0x1e8c>
  4061ee:	48 8b ac 24 a0 03 00 	mov    0x3a0(%rsp),%rbp
  4061f5:	00 
  4061f6:	4c 8b 7d e8          	mov    -0x18(%rbp),%r15
  4061fa:	eb 17                	jmp    406213 <_ZN6rocket6Config4loadEPKc+0x1963>
  4061fc:	0f 1f 40 00          	nopl   0x0(%rax)
	if (__d > __gnu_cxx::__numeric_traits<int>::__max)
	  return __gnu_cxx::__numeric_traits<int>::__max;
	else if (__d < __gnu_cxx::__numeric_traits<int>::__min)
	  return __gnu_cxx::__numeric_traits<int>::__min;
	else
	  return int(__d);
  406200:	44 89 e0             	mov    %r12d,%eax
	if (!_M_impl._M_key_compare(_S_key(__x), __k))
  406203:	85 c0                	test   %eax,%eax
  406205:	78 3f                	js     406246 <_ZN6rocket6Config4loadEPKc+0x1996>
		      _Compare, _Alloc>::iterator
    _Rb_tree<_Key, _Val, _KeyOfValue, _Compare, _Alloc>::
    _M_lower_bound(_Link_type __x, _Link_type __y,
		   const _Key& __k)
    {
      while (__x != 0)
  406207:	4d 89 ee             	mov    %r13,%r14
	if (!_M_impl._M_key_compare(_S_key(__x), __k))
	  __y = __x, __x = _S_left(__x);
  40620a:	4d 8b 6d 10          	mov    0x10(%r13),%r13
		      _Compare, _Alloc>::iterator
    _Rb_tree<_Key, _Val, _KeyOfValue, _Compare, _Alloc>::
    _M_lower_bound(_Link_type __x, _Link_type __y,
		   const _Key& __k)
    {
      while (__x != 0)
  40620e:	4d 85 ed             	test   %r13,%r13
  406211:	74 3c                	je     40624f <_ZN6rocket6Config4loadEPKc+0x199f>
      // Data Members (private):
      mutable _Alloc_hider	_M_dataplus;

      _CharT*
      _M_data() const _GLIBCXX_NOEXCEPT
      { return  _M_dataplus._M_p; }
  406213:	49 8b 7d 20          	mov    0x20(%r13),%rdi
  406217:	4c 89 fa             	mov    %r15,%rdx
  40621a:	48 89 ee             	mov    %rbp,%rsi
      // Capacity:
      ///  Returns the number of characters in the string, not including any
      ///  null-termination.
      size_type
      size() const _GLIBCXX_NOEXCEPT
      { return _M_rep()->_M_length; }
  40621d:	4c 8b 67 e8          	mov    -0x18(%rdi),%r12
  406221:	4d 39 fc             	cmp    %r15,%r12
  406224:	49 0f 46 d4          	cmovbe %r12,%rdx
  406228:	e8 c3 dd ff ff       	callq  403ff0 <memcmp@plt>
	const size_type __size = this->size();
	const size_type __osize = __str.size();
	const size_type __len = std::min(__size, __osize);

	int __r = traits_type::compare(_M_data(), __str.data(), __len);
	if (!__r)
  40622d:	85 c0                	test   %eax,%eax
  40622f:	75 d2                	jne    406203 <_ZN6rocket6Config4loadEPKc+0x1953>
      { _M_copy(__p, __k1, __k2 - __k1); }

      static int
      _S_compare(size_type __n1, size_type __n2) _GLIBCXX_NOEXCEPT
      {
	const difference_type __d = difference_type(__n1 - __n2);
  406231:	4d 29 fc             	sub    %r15,%r12

	if (__d > __gnu_cxx::__numeric_traits<int>::__max)
  406234:	49 81 fc ff ff ff 7f 	cmp    $0x7fffffff,%r12
  40623b:	7f ca                	jg     406207 <_ZN6rocket6Config4loadEPKc+0x1957>
	  return __gnu_cxx::__numeric_traits<int>::__max;
	else if (__d < __gnu_cxx::__numeric_traits<int>::__min)
  40623d:	49 81 fc 00 00 00 80 	cmp    $0xffffffff80000000,%r12
  406244:	7d ba                	jge    406200 <_ZN6rocket6Config4loadEPKc+0x1950>
  406246:	4d 8b 6d 18          	mov    0x18(%r13),%r13
  40624a:	4d 85 ed             	test   %r13,%r13
  40624d:	75 c4                	jne    406213 <_ZN6rocket6Config4loadEPKc+0x1963>
	// concept requirements
	__glibcxx_function_requires(_DefaultConstructibleConcept<mapped_type>)

	iterator __i = lower_bound(__k);
	// __i->first is greater than or equivalent to __k.
	if (__i == end() || key_comp()(__k, (*__i).first))
  40624f:	48 8b 44 24 08       	mov    0x8(%rsp),%rax
  406254:	48 83 c0 08          	add    $0x8,%rax
  406258:	49 39 c6             	cmp    %rax,%r14
  40625b:	0f 84 db 04 00 00    	je     40673c <_ZN6rocket6Config4loadEPKc+0x1e8c>
      // Data Members (private):
      mutable _Alloc_hider	_M_dataplus;

      _CharT*
      _M_data() const _GLIBCXX_NOEXCEPT
      { return  _M_dataplus._M_p; }
  406261:	49 8b 76 20          	mov    0x20(%r14),%rsi
  406265:	4c 89 fa             	mov    %r15,%rdx
  406268:	48 89 ef             	mov    %rbp,%rdi
      // Capacity:
      ///  Returns the number of characters in the string, not including any
      ///  null-termination.
      size_type
      size() const _GLIBCXX_NOEXCEPT
      { return _M_rep()->_M_length; }
  40626b:	4c 8b 66 e8          	mov    -0x18(%rsi),%r12
  40626f:	4d 39 fc             	cmp    %r15,%r12
  406272:	49 0f 46 d4          	cmovbe %r12,%rdx
  406276:	e8 75 dd ff ff       	callq  403ff0 <memcmp@plt>
	const size_type __size = this->size();
	const size_type __osize = __str.size();
	const size_type __len = std::min(__size, __osize);

	int __r = traits_type::compare(_M_data(), __str.data(), __len);
	if (!__r)
  40627b:	85 c0                	test   %eax,%eax
  40627d:	0f 85 b1 04 00 00    	jne    406734 <_ZN6rocket6Config4loadEPKc+0x1e84>
      { _M_copy(__p, __k1, __k2 - __k1); }

      static int
      _S_compare(size_type __n1, size_type __n2) _GLIBCXX_NOEXCEPT
      {
	const difference_type __d = difference_type(__n1 - __n2);
  406283:	4d 29 e7             	sub    %r12,%r15

	if (__d > __gnu_cxx::__numeric_traits<int>::__max)
  406286:	49 81 ff ff ff ff 7f 	cmp    $0x7fffffff,%r15
  40628d:	0f 8e 95 04 00 00    	jle    406728 <_ZN6rocket6Config4loadEPKc+0x1e78>
  406293:	48 8d ac 24 f0 03 00 	lea    0x3f0(%rsp),%rbp
  40629a:	00 
       *  The default constructor does nothing and is not normally
       *  accessible to users.
      */
      basic_ios()
      : ios_base(), _M_tie(0), _M_fill(char_type()), _M_fill_init(false), 
	_M_streambuf(0), _M_ctype(0), _M_num_put(0), _M_num_get(0)
  40629b:	48 8d 7d 60          	lea    0x60(%rbp),%rdi
  40629f:	e8 7c d8 ff ff       	callq  403b20 <_ZNSt8ios_baseC2Ev@plt>
  4062a4:	4c 8b 2d 05 dc 20 00 	mov    0x20dc05(%rip),%r13        # 613eb0 <_DYNAMIC+0x228>
  4062ab:	c6 84 24 30 05 00 00 	movb   $0x0,0x530(%rsp)
  4062b2:	00 
      //@}

    protected:
      basic_istream()
      : _M_gcount(streamsize(0))
      { this->init(0); }
  4062b3:	48 89 ef             	mov    %rbp,%rdi
  4062b6:	48 c7 84 24 28 05 00 	movq   $0x0,0x528(%rsp)
  4062bd:	00 00 00 00 00 
  4062c2:	c6 84 24 31 05 00 00 	movb   $0x0,0x531(%rsp)
  4062c9:	00 
  4062ca:	31 f6                	xor    %esi,%esi
  4062cc:	48 c7 84 24 38 05 00 	movq   $0x0,0x538(%rsp)
  4062d3:	00 00 00 00 00 
  4062d8:	48 c7 84 24 40 05 00 	movq   $0x0,0x540(%rsp)
  4062df:	00 00 00 00 00 
  4062e4:	49 8d 45 10          	lea    0x10(%r13),%rax
  4062e8:	48 c7 84 24 48 05 00 	movq   $0x0,0x548(%rsp)
  4062ef:	00 00 00 00 00 
  4062f4:	48 c7 84 24 50 05 00 	movq   $0x0,0x550(%rsp)
  4062fb:	00 00 00 00 00 
  406300:	48 89 84 24 50 04 00 	mov    %rax,0x450(%rsp)
  406307:	00 
      seekg(off_type, ios_base::seekdir);
      //@}

    protected:
      basic_istream()
      : _M_gcount(streamsize(0))
  406308:	48 8b 05 b9 db 20 00 	mov    0x20dbb9(%rip),%rax        # 613ec8 <_DYNAMIC+0x240>
  40630f:	4c 8b 78 08          	mov    0x8(%rax),%r15
  406313:	48 8b 40 10          	mov    0x10(%rax),%rax
  406317:	48 89 c1             	mov    %rax,%rcx
  40631a:	48 89 44 24 40       	mov    %rax,0x40(%rsp)
  40631f:	49 8b 47 e8          	mov    -0x18(%r15),%rax
  406323:	4c 89 bc 24 f0 03 00 	mov    %r15,0x3f0(%rsp)
  40632a:	00 
  40632b:	48 89 8c 04 f0 03 00 	mov    %rcx,0x3f0(%rsp,%rax,1)
  406332:	00 
  406333:	48 c7 84 24 f8 03 00 	movq   $0x0,0x3f8(%rsp)
  40633a:	00 00 00 00 00 
      { this->init(0); }
  40633f:	49 03 7f e8          	add    -0x18(%r15),%rdi
  406343:	e8 b8 db ff ff       	callq  403f00 <_ZNSt9basic_iosIcSt11char_traitsIcEE4initEPSt15basic_streambufIcS1_E@plt>
       *  string class does its own memory management.
      */
      explicit
      basic_istringstream(const __string_type& __str,
			  ios_base::openmode __mode = ios_base::in)
      : __istream_type(), _M_stringbuf(__str, __mode | ios_base::in)
  406348:	4c 8b 25 19 dc 20 00 	mov    0x20dc19(%rip),%r12        # 613f68 <_DYNAMIC+0x2e0>
       *  - this is not an error
      */
      basic_streambuf()
      : _M_in_beg(0), _M_in_cur(0), _M_in_end(0), 
      _M_out_beg(0), _M_out_cur(0), _M_out_end(0),
      _M_buf_locale(locale()) 
  40634f:	48 8d 7d 48          	lea    0x48(%rbp),%rdi
  406353:	48 c7 84 24 08 04 00 	movq   $0x0,0x408(%rsp)
  40635a:	00 00 00 00 00 
  40635f:	48 c7 84 24 10 04 00 	movq   $0x0,0x410(%rsp)
  406366:	00 00 00 00 00 
  40636b:	48 c7 84 24 18 04 00 	movq   $0x0,0x418(%rsp)
  406372:	00 00 00 00 00 
  406377:	48 c7 84 24 20 04 00 	movq   $0x0,0x420(%rsp)
  40637e:	00 00 00 00 00 
  406383:	48 c7 84 24 28 04 00 	movq   $0x0,0x428(%rsp)
  40638a:	00 00 00 00 00 
  40638f:	49 8d 44 24 18       	lea    0x18(%r12),%rax
  406394:	48 c7 84 24 30 04 00 	movq   $0x0,0x430(%rsp)
  40639b:	00 00 00 00 00 
  4063a0:	48 89 84 24 f0 03 00 	mov    %rax,0x3f0(%rsp)
  4063a7:	00 
  4063a8:	49 8d 44 24 40       	lea    0x40(%r12),%rax
  4063ad:	48 89 84 24 50 04 00 	mov    %rax,0x450(%rsp)
  4063b4:	00 
  4063b5:	48 8b 05 9c db 20 00 	mov    0x20db9c(%rip),%rax        # 613f58 <_DYNAMIC+0x2d0>
  4063bc:	48 89 44 24 20       	mov    %rax,0x20(%rsp)
  4063c1:	48 83 c0 10          	add    $0x10,%rax
  4063c5:	48 89 84 24 00 04 00 	mov    %rax,0x400(%rsp)
  4063cc:	00 
  4063cd:	e8 ae da ff ff       	callq  403e80 <_ZNSt6localeC1Ev@plt>
       *  own default ctor.
      */
      explicit
      basic_stringbuf(const __string_type& __str,
		      ios_base::openmode __mode = ios_base::in | ios_base::out)
      : __streambuf_type(), _M_mode(), _M_string(__str.data(), __str.size())
  4063d2:	48 8b 05 cf da 20 00 	mov    0x20dacf(%rip),%rax        # 613ea8 <_DYNAMIC+0x220>
  4063d9:	48 8b 4c 24 10       	mov    0x10(%rsp),%rcx
  4063de:	48 8d 7d 58          	lea    0x58(%rbp),%rdi
  4063e2:	c7 84 24 40 04 00 00 	movl   $0x0,0x440(%rsp)
  4063e9:	00 00 00 00 
  4063ed:	48 89 44 24 28       	mov    %rax,0x28(%rsp)
  4063f2:	48 83 c0 10          	add    $0x10,%rax
  4063f6:	48 89 84 24 00 04 00 	mov    %rax,0x400(%rsp)
  4063fd:	00 
      // Data Members (private):
      mutable _Alloc_hider	_M_dataplus;

      _CharT*
      _M_data() const _GLIBCXX_NOEXCEPT
      { return  _M_dataplus._M_p; }
  4063fe:	49 8b 76 28          	mov    0x28(%r14),%rsi
  406402:	48 8b 56 e8          	mov    -0x18(%rsi),%rdx
  406406:	e8 45 d7 ff ff       	callq  403b50 <_ZNSsC1EPKcmRKSaIcE@plt>
      {
	_M_mode = __mode;
	__size_type __len = 0;
	if (_M_mode & (ios_base::ate | ios_base::app))
	  __len = _M_string.size();
	_M_sync(const_cast<char_type*>(_M_string.data()), 0, __len);
  40640b:	48 8b b4 24 48 04 00 	mov    0x448(%rsp),%rsi
  406412:	00 
  406413:	48 8d 7d 10          	lea    0x10(%rbp),%rdi
  406417:	31 c9                	xor    %ecx,%ecx
  406419:	31 d2                	xor    %edx,%edx
    protected:
      // Common initialization code goes here.
      void
      _M_stringbuf_init(ios_base::openmode __mode)
      {
	_M_mode = __mode;
  40641b:	c7 84 24 40 04 00 00 	movl   $0x8,0x440(%rsp)
  406422:	08 00 00 00 
	__size_type __len = 0;
	if (_M_mode & (ios_base::ate | ios_base::app))
	  __len = _M_string.size();
	_M_sync(const_cast<char_type*>(_M_string.data()), 0, __len);
  406426:	e8 85 db ff ff       	callq  403fb0 <_ZNSt15basic_stringbufIcSt11char_traitsIcESaIcEE7_M_syncEPcmm@plt>
      */
      explicit
      basic_istringstream(const __string_type& __str,
			  ios_base::openmode __mode = ios_base::in)
      : __istream_type(), _M_stringbuf(__str, __mode | ios_base::in)
      { this->init(&_M_stringbuf); }
  40642b:	48 8d 75 10          	lea    0x10(%rbp),%rsi
  40642f:	48 8d 7d 60          	lea    0x60(%rbp),%rdi
  406433:	e8 c8 da ff ff       	callq  403f00 <_ZNSt9basic_iosIcSt11char_traitsIcEE4initEPSt15basic_streambufIcS1_E@plt>
        {
            istringstream iss(_m[name]);
            T num = 0;
            iss >> num;
  406438:	48 8b 74 24 10       	mov    0x10(%rsp),%rsi
  40643d:	48 89 ef             	mov    %rbp,%rdi
        string name = section + "." + key;

        if (_m.find(name) != _m.end())
        {
            istringstream iss(_m[name]);
            T num = 0;
  406440:	c7 84 24 b0 03 00 00 	movl   $0x0,0x3b0(%rsp)
  406447:	00 00 00 00 
            iss >> num;
  40644b:	e8 50 db ff ff       	callq  403fa0 <_ZNSirsERi@plt>
       *
       *  The buffer is deallocated by the stringbuf object, not the
       *  formatting stream.
      */
      ~basic_istringstream()
      { }
  406450:	49 8d 44 24 18       	lea    0x18(%r12),%rax
            return num;
  406455:	44 8b b4 24 b0 03 00 	mov    0x3b0(%rsp),%r14d
  40645c:	00 
  40645d:	48 89 84 24 f0 03 00 	mov    %rax,0x3f0(%rsp)
  406464:	00 
  406465:	49 8d 44 24 40       	lea    0x40(%r12),%rax
  40646a:	48 89 84 24 50 04 00 	mov    %rax,0x450(%rsp)
  406471:	00 
   *  For this class, open modes (of type @c ios_base::openmode) have
   *  @c in set if the input sequence can be read, and @c out set if the
   *  output sequence can be written.
  */
  template<typename _CharT, typename _Traits, typename _Alloc>
    class basic_stringbuf : public basic_streambuf<_CharT, _Traits>
  406472:	48 8b 44 24 28       	mov    0x28(%rsp),%rax
  406477:	48 83 c0 10          	add    $0x10,%rax
  40647b:	48 89 84 24 00 04 00 	mov    %rax,0x400(%rsp)
  406482:	00 
  406483:	48 8b 84 24 48 04 00 	mov    0x448(%rsp),%rax
  40648a:	00 
      _M_data(_CharT* __p) _GLIBCXX_NOEXCEPT
      { return (_M_dataplus._M_p = __p); }

      _Rep*
      _M_rep() const _GLIBCXX_NOEXCEPT
      { return &((reinterpret_cast<_Rep*> (_M_data()))[-1]); }
  40648b:	48 8d 78 e8          	lea    -0x18(%rax),%rdi

	void
	_M_dispose(const _Alloc& __a) _GLIBCXX_NOEXCEPT
	{
#if _GLIBCXX_FULLY_DYNAMIC_STRING == 0
	  if (__builtin_expect(this != &_S_empty_rep(), false))
  40648f:	48 39 df             	cmp    %rbx,%rdi
  406492:	0f 85 60 13 00 00    	jne    4077f8 <_ZN6rocket6Config4loadEPKc+0x2f48>

  public:
      /// Destructor deallocates no buffer space.
      virtual 
      ~basic_streambuf() 
      { }
  406498:	48 8b 44 24 20       	mov    0x20(%rsp),%rax
  40649d:	48 8d 7d 48          	lea    0x48(%rbp),%rdi
  4064a1:	48 83 c0 10          	add    $0x10,%rax
  4064a5:	48 89 84 24 00 04 00 	mov    %rax,0x400(%rsp)
  4064ac:	00 
  4064ad:	e8 fe dc ff ff       	callq  4041b0 <_ZNSt6localeD1Ev@plt>
       *
       *  This does very little apart from providing a virtual base dtor.
      */
      virtual
      ~basic_istream()
      { _M_gcount = streamsize(0); }
  4064b2:	49 8b 47 e8          	mov    -0x18(%r15),%rax
  4064b6:	48 8b 4c 24 40       	mov    0x40(%rsp),%rcx
       *
       *  The destructor does nothing.  More specifically, it does not
       *  destroy the streambuf held by rdbuf().
      */
      virtual
      ~basic_ios() { }
  4064bb:	48 8d 7d 60          	lea    0x60(%rbp),%rdi
  4064bf:	4c 89 bc 24 f0 03 00 	mov    %r15,0x3f0(%rsp)
  4064c6:	00 
  4064c7:	48 89 8c 04 f0 03 00 	mov    %rcx,0x3f0(%rsp,%rax,1)
  4064ce:	00 
  4064cf:	49 8d 45 10          	lea    0x10(%r13),%rax
  4064d3:	48 89 84 24 50 04 00 	mov    %rax,0x450(%rsp)
  4064da:	00 
  4064db:	e8 80 da ff ff       	callq  403f60 <_ZNSt8ios_baseD2Ev@plt>
      // Data Members (private):
      mutable _Alloc_hider	_M_dataplus;

      _CharT*
      _M_data() const _GLIBCXX_NOEXCEPT
      { return  _M_dataplus._M_p; }
  4064e0:	48 8b 84 24 a0 03 00 	mov    0x3a0(%rsp),%rax
  4064e7:	00 
      _M_data(_CharT* __p) _GLIBCXX_NOEXCEPT
      { return (_M_dataplus._M_p = __p); }

      _Rep*
      _M_rep() const _GLIBCXX_NOEXCEPT
      { return &((reinterpret_cast<_Rep*> (_M_data()))[-1]); }
  4064e8:	48 8d 78 e8          	lea    -0x18(%rax),%rdi

	void
	_M_dispose(const _Alloc& __a) _GLIBCXX_NOEXCEPT
	{
#if _GLIBCXX_FULLY_DYNAMIC_STRING == 0
	  if (__builtin_expect(this != &_S_empty_rep(), false))
  4064ec:	48 39 df             	cmp    %rbx,%rdi
  4064ef:	0f 85 cb 0e 00 00    	jne    4073c0 <_ZN6rocket6Config4loadEPKc+0x2b10>
  4064f5:	48 8b 44 24 18       	mov    0x18(%rsp),%rax
  4064fa:	44 89 70 14          	mov    %r14d,0x14(%rax)
      // Data Members (private):
      mutable _Alloc_hider	_M_dataplus;

      _CharT*
      _M_data() const _GLIBCXX_NOEXCEPT
      { return  _M_dataplus._M_p; }
  4064fe:	48 8b 84 24 30 02 00 	mov    0x230(%rsp),%rax
  406505:	00 
      _M_data(_CharT* __p) _GLIBCXX_NOEXCEPT
      { return (_M_dataplus._M_p = __p); }

      _Rep*
      _M_rep() const _GLIBCXX_NOEXCEPT
      { return &((reinterpret_cast<_Rep*> (_M_data()))[-1]); }
  406506:	48 8d 78 e8          	lea    -0x18(%rax),%rdi

	void
	_M_dispose(const _Alloc& __a) _GLIBCXX_NOEXCEPT
	{
#if _GLIBCXX_FULLY_DYNAMIC_STRING == 0
	  if (__builtin_expect(this != &_S_empty_rep(), false))
  40650a:	48 39 df             	cmp    %rbx,%rdi
  40650d:	0f 85 35 05 00 00    	jne    406a48 <_ZN6rocket6Config4loadEPKc+0x2198>
      // Data Members (private):
      mutable _Alloc_hider	_M_dataplus;

      _CharT*
      _M_data() const _GLIBCXX_NOEXCEPT
      { return  _M_dataplus._M_p; }
  406513:	48 8b 84 24 40 02 00 	mov    0x240(%rsp),%rax
  40651a:	00 
      _M_data(_CharT* __p) _GLIBCXX_NOEXCEPT
      { return (_M_dataplus._M_p = __p); }

      _Rep*
      _M_rep() const _GLIBCXX_NOEXCEPT
      { return &((reinterpret_cast<_Rep*> (_M_data()))[-1]); }
  40651b:	48 8d 78 e8          	lea    -0x18(%rax),%rdi

	void
	_M_dispose(const _Alloc& __a) _GLIBCXX_NOEXCEPT
	{
#if _GLIBCXX_FULLY_DYNAMIC_STRING == 0
	  if (__builtin_expect(this != &_S_empty_rep(), false))
  40651f:	48 39 df             	cmp    %rbx,%rdi
  406522:	0f 85 e8 04 00 00    	jne    406a10 <_ZN6rocket6Config4loadEPKc+0x2160>
    if (_timeout < 0)
  406528:	48 8b 44 24 18       	mov    0x18(%rsp),%rax
  40652d:	8b 50 14             	mov    0x14(%rax),%edx
  406530:	85 d2                	test   %edx,%edx
  406532:	0f 88 90 04 00 00    	js     4069c8 <_ZN6rocket6Config4loadEPKc+0x2118>
    {
        _timeout = 0; // 
    }

    _enable_thread_name = cr.GetBool("server", "enable_thread_name", false);
  406538:	4c 8d a4 24 60 02 00 	lea    0x260(%rsp),%r12
  40653f:	00 
  406540:	48 8b 54 24 10       	mov    0x10(%rsp),%rdx
  406545:	48 8d 35 a3 9e 00 00 	lea    0x9ea3(%rip),%rsi        # 4103ef <_IO_stdin_used+0x6f>
  40654c:	4c 89 e7             	mov    %r12,%rdi
  40654f:	e8 cc d8 ff ff       	callq  403e20 <_ZNSsC1EPKcRKSaIcE@plt>
  406554:	48 8d ac 24 50 02 00 	lea    0x250(%rsp),%rbp
  40655b:	00 
  40655c:	48 8b 54 24 38       	mov    0x38(%rsp),%rdx
  406561:	48 8d 35 30 a8 00 00 	lea    0xa830(%rip),%rsi        # 410d98 <_ZZN6rocket5MutexD4EvE19__PRETTY_FUNCTION__+0x78>
  406568:	48 89 ef             	mov    %rbp,%rdi
  40656b:	e8 b0 d8 ff ff       	callq  403e20 <_ZNSsC1EPKcRKSaIcE@plt>
  406570:	48 8b 7c 24 08       	mov    0x8(%rsp),%rdi
  406575:	31 c9                	xor    %ecx,%ecx
  406577:	4c 89 e2             	mov    %r12,%rdx
  40657a:	48 89 ee             	mov    %rbp,%rsi
  40657d:	e8 ee 2b 00 00       	callq  409170 <_ZN6rocket12ConfigReader7GetBoolERKSsS2_b>
  406582:	48 8b 4c 24 18       	mov    0x18(%rsp),%rcx
  406587:	88 41 18             	mov    %al,0x18(%rcx)
      // Data Members (private):
      mutable _Alloc_hider	_M_dataplus;

      _CharT*
      _M_data() const _GLIBCXX_NOEXCEPT
      { return  _M_dataplus._M_p; }
  40658a:	48 8b 84 24 50 02 00 	mov    0x250(%rsp),%rax
  406591:	00 
      _M_data(_CharT* __p) _GLIBCXX_NOEXCEPT
      { return (_M_dataplus._M_p = __p); }

      _Rep*
      _M_rep() const _GLIBCXX_NOEXCEPT
      { return &((reinterpret_cast<_Rep*> (_M_data()))[-1]); }
  406592:	48 8d 78 e8          	lea    -0x18(%rax),%rdi

	void
	_M_dispose(const _Alloc& __a) _GLIBCXX_NOEXCEPT
	{
#if _GLIBCXX_FULLY_DYNAMIC_STRING == 0
	  if (__builtin_expect(this != &_S_empty_rep(), false))
  406596:	48 39 df             	cmp    %rbx,%rdi
  406599:	0f 85 19 05 00 00    	jne    406ab8 <_ZN6rocket6Config4loadEPKc+0x2208>
      // Data Members (private):
      mutable _Alloc_hider	_M_dataplus;

      _CharT*
      _M_data() const _GLIBCXX_NOEXCEPT
      { return  _M_dataplus._M_p; }
  40659f:	48 8b 84 24 60 02 00 	mov    0x260(%rsp),%rax
  4065a6:	00 
      _M_data(_CharT* __p) _GLIBCXX_NOEXCEPT
      { return (_M_dataplus._M_p = __p); }

      _Rep*
      _M_rep() const _GLIBCXX_NOEXCEPT
      { return &((reinterpret_cast<_Rep*> (_M_data()))[-1]); }
  4065a7:	48 8d 78 e8          	lea    -0x18(%rax),%rdi

	void
	_M_dispose(const _Alloc& __a) _GLIBCXX_NOEXCEPT
	{
#if _GLIBCXX_FULLY_DYNAMIC_STRING == 0
	  if (__builtin_expect(this != &_S_empty_rep(), false))
  4065ab:	48 39 df             	cmp    %rbx,%rdi
  4065ae:	0f 85 cc 04 00 00    	jne    406a80 <_ZN6rocket6Config4loadEPKc+0x21d0>

    _daemonize = cr.GetBool("server", "daemonize", false);
  4065b4:	4c 8d a4 24 80 02 00 	lea    0x280(%rsp),%r12
  4065bb:	00 
  4065bc:	48 8b 54 24 10       	mov    0x10(%rsp),%rdx
  4065c1:	48 8d 35 3a 9e 00 00 	lea    0x9e3a(%rip),%rsi        # 410402 <_IO_stdin_used+0x82>
  4065c8:	4c 89 e7             	mov    %r12,%rdi
  4065cb:	e8 50 d8 ff ff       	callq  403e20 <_ZNSsC1EPKcRKSaIcE@plt>
  4065d0:	48 8d ac 24 70 02 00 	lea    0x270(%rsp),%rbp
  4065d7:	00 
  4065d8:	48 8b 54 24 38       	mov    0x38(%rsp),%rdx
  4065dd:	48 8d 35 b4 a7 00 00 	lea    0xa7b4(%rip),%rsi        # 410d98 <_ZZN6rocket5MutexD4EvE19__PRETTY_FUNCTION__+0x78>
  4065e4:	48 89 ef             	mov    %rbp,%rdi
  4065e7:	e8 34 d8 ff ff       	callq  403e20 <_ZNSsC1EPKcRKSaIcE@plt>
  4065ec:	48 8b 7c 24 08       	mov    0x8(%rsp),%rdi
  4065f1:	31 c9                	xor    %ecx,%ecx
  4065f3:	4c 89 e2             	mov    %r12,%rdx
  4065f6:	48 89 ee             	mov    %rbp,%rsi
  4065f9:	e8 72 2b 00 00       	callq  409170 <_ZN6rocket12ConfigReader7GetBoolERKSsS2_b>
  4065fe:	48 8b 4c 24 18       	mov    0x18(%rsp),%rcx
  406603:	88 41 19             	mov    %al,0x19(%rcx)
      // Data Members (private):
      mutable _Alloc_hider	_M_dataplus;

      _CharT*
      _M_data() const _GLIBCXX_NOEXCEPT
      { return  _M_dataplus._M_p; }
  406606:	48 8b 84 24 70 02 00 	mov    0x270(%rsp),%rax
  40660d:	00 
      _M_data(_CharT* __p) _GLIBCXX_NOEXCEPT
      { return (_M_dataplus._M_p = __p); }

      _Rep*
      _M_rep() const _GLIBCXX_NOEXCEPT
      { return &((reinterpret_cast<_Rep*> (_M_data()))[-1]); }
  40660e:	48 8d 78 e8          	lea    -0x18(%rax),%rdi

	void
	_M_dispose(const _Alloc& __a) _GLIBCXX_NOEXCEPT
	{
#if _GLIBCXX_FULLY_DYNAMIC_STRING == 0
	  if (__builtin_expect(this != &_S_empty_rep(), false))
  406612:	48 39 df             	cmp    %rbx,%rdi
  406615:	0f 85 b5 06 00 00    	jne    406cd0 <_ZN6rocket6Config4loadEPKc+0x2420>
      // Data Members (private):
      mutable _Alloc_hider	_M_dataplus;

      _CharT*
      _M_data() const _GLIBCXX_NOEXCEPT
      { return  _M_dataplus._M_p; }
  40661b:	48 8b 84 24 80 02 00 	mov    0x280(%rsp),%rax
  406622:	00 
      _M_data(_CharT* __p) _GLIBCXX_NOEXCEPT
      { return (_M_dataplus._M_p = __p); }

      _Rep*
      _M_rep() const _GLIBCXX_NOEXCEPT
      { return &((reinterpret_cast<_Rep*> (_M_data()))[-1]); }
  406623:	48 8d 78 e8          	lea    -0x18(%rax),%rdi

	void
	_M_dispose(const _Alloc& __a) _GLIBCXX_NOEXCEPT
	{
#if _GLIBCXX_FULLY_DYNAMIC_STRING == 0
	  if (__builtin_expect(this != &_S_empty_rep(), false))
  406627:	48 39 df             	cmp    %rbx,%rdi
  40662a:	0f 85 68 06 00 00    	jne    406c98 <_ZN6rocket6Config4loadEPKc+0x23e8>

    // app config
    _app_so = cr["app.so"];
  406630:	48 8d ac 24 90 02 00 	lea    0x290(%rsp),%rbp
  406637:	00 
  406638:	48 8b 54 24 10       	mov    0x10(%rsp),%rdx
  40663d:	48 8d 35 c8 9d 00 00 	lea    0x9dc8(%rip),%rsi        # 41040c <_IO_stdin_used+0x8c>
  406644:	48 89 ef             	mov    %rbp,%rdi
  406647:	e8 d4 d7 ff ff       	callq  403e20 <_ZNSsC1EPKcRKSaIcE@plt>
  40664c:	48 8b 7c 24 08       	mov    0x8(%rsp),%rdi
  406651:	48 89 ee             	mov    %rbp,%rsi
  406654:	e8 67 38 00 00       	callq  409ec0 <_ZN6rocket12ConfigReaderixERKSs>
  406659:	48 8b 4c 24 18       	mov    0x18(%rsp),%rcx
       *  @brief  Assign the value of @a str to this string.
       *  @param  __str  Source string.
       */
      basic_string&
      operator=(const basic_string& __str) 
      { return this->assign(__str); }
  40665e:	48 89 c6             	mov    %rax,%rsi
  406661:	48 8d 79 20          	lea    0x20(%rcx),%rdi
  406665:	e8 56 d9 ff ff       	callq  403fc0 <_ZNSs6assignERKSs@plt>
      // Data Members (private):
      mutable _Alloc_hider	_M_dataplus;

      _CharT*
      _M_data() const _GLIBCXX_NOEXCEPT
      { return  _M_dataplus._M_p; }
  40666a:	48 8b 84 24 90 02 00 	mov    0x290(%rsp),%rax
  406671:	00 
      _M_data(_CharT* __p) _GLIBCXX_NOEXCEPT
      { return (_M_dataplus._M_p = __p); }

      _Rep*
      _M_rep() const _GLIBCXX_NOEXCEPT
      { return &((reinterpret_cast<_Rep*> (_M_data()))[-1]); }
  406672:	48 8d 78 e8          	lea    -0x18(%rax),%rdi

	void
	_M_dispose(const _Alloc& __a) _GLIBCXX_NOEXCEPT
	{
#if _GLIBCXX_FULLY_DYNAMIC_STRING == 0
	  if (__builtin_expect(this != &_S_empty_rep(), false))
  406676:	48 39 df             	cmp    %rbx,%rdi
  406679:	0f 85 e1 05 00 00    	jne    406c60 <_ZN6rocket6Config4loadEPKc+0x23b0>
    _app_conf = cr["app.conf"];
  40667f:	48 8d ac 24 a0 02 00 	lea    0x2a0(%rsp),%rbp
  406686:	00 
  406687:	48 8b 54 24 10       	mov    0x10(%rsp),%rdx
  40668c:	48 8d 35 80 9d 00 00 	lea    0x9d80(%rip),%rsi        # 410413 <_IO_stdin_used+0x93>
  406693:	48 89 ef             	mov    %rbp,%rdi
  406696:	e8 85 d7 ff ff       	callq  403e20 <_ZNSsC1EPKcRKSaIcE@plt>
  40669b:	48 8b 7c 24 08       	mov    0x8(%rsp),%rdi
  4066a0:	48 89 ee             	mov    %rbp,%rsi
  4066a3:	e8 18 38 00 00       	callq  409ec0 <_ZN6rocket12ConfigReaderixERKSs>
  4066a8:	48 8b 7c 24 18       	mov    0x18(%rsp),%rdi
       *  @brief  Assign the value of @a str to this string.
       *  @param  __str  Source string.
       */
      basic_string&
      operator=(const basic_string& __str) 
      { return this->assign(__str); }
  4066ad:	48 89 c6             	mov    %rax,%rsi
  4066b0:	48 83 c7 28          	add    $0x28,%rdi
  4066b4:	e8 07 d9 ff ff       	callq  403fc0 <_ZNSs6assignERKSs@plt>
      // Data Members (private):
      mutable _Alloc_hider	_M_dataplus;

      _CharT*
      _M_data() const _GLIBCXX_NOEXCEPT
      { return  _M_dataplus._M_p; }
  4066b9:	48 8b 84 24 a0 02 00 	mov    0x2a0(%rsp),%rax
  4066c0:	00 
      _M_data(_CharT* __p) _GLIBCXX_NOEXCEPT
      { return (_M_dataplus._M_p = __p); }

      _Rep*
      _M_rep() const _GLIBCXX_NOEXCEPT
      { return &((reinterpret_cast<_Rep*> (_M_data()))[-1]); }
  4066c1:	48 8d 78 e8          	lea    -0x18(%rax),%rdi

	void
	_M_dispose(const _Alloc& __a) _GLIBCXX_NOEXCEPT
	{
#if _GLIBCXX_FULLY_DYNAMIC_STRING == 0
	  if (__builtin_expect(this != &_S_empty_rep(), false))
  4066c5:	48 39 df             	cmp    %rbx,%rdi
  4066c8:	0f 85 5a 05 00 00    	jne    406c28 <_ZN6rocket6Config4loadEPKc+0x2378>
      // Data Members (private):
      mutable _Alloc_hider	_M_dataplus;

      _CharT*
      _M_data() const _GLIBCXX_NOEXCEPT
      { return  _M_dataplus._M_p; }
  4066ce:	48 8b 84 24 d0 00 00 	mov    0xd0(%rsp),%rax
  4066d5:	00 
      _M_data(_CharT* __p) _GLIBCXX_NOEXCEPT
      { return (_M_dataplus._M_p = __p); }

      _Rep*
      _M_rep() const _GLIBCXX_NOEXCEPT
      { return &((reinterpret_cast<_Rep*> (_M_data()))[-1]); }
  4066d6:	48 8d 78 e8          	lea    -0x18(%rax),%rdi

	void
	_M_dispose(const _Alloc& __a) _GLIBCXX_NOEXCEPT
	{
#if _GLIBCXX_FULLY_DYNAMIC_STRING == 0
	  if (__builtin_expect(this != &_S_empty_rep(), false))
  4066da:	48 39 df             	cmp    %rbx,%rdi
  4066dd:	0f 85 0d 05 00 00    	jne    406bf0 <_ZN6rocket6Config4loadEPKc+0x2340>
      // Data Members (private):
      mutable _Alloc_hider	_M_dataplus;

      _CharT*
      _M_data() const _GLIBCXX_NOEXCEPT
      { return  _M_dataplus._M_p; }
  4066e3:	48 8b 84 24 90 00 00 	mov    0x90(%rsp),%rax
  4066ea:	00 
      _M_data(_CharT* __p) _GLIBCXX_NOEXCEPT
      { return (_M_dataplus._M_p = __p); }

      _Rep*
      _M_rep() const _GLIBCXX_NOEXCEPT
      { return &((reinterpret_cast<_Rep*> (_M_data()))[-1]); }
  4066eb:	48 8d 78 e8          	lea    -0x18(%rax),%rdi

	void
	_M_dispose(const _Alloc& __a) _GLIBCXX_NOEXCEPT
	{
#if _GLIBCXX_FULLY_DYNAMIC_STRING == 0
	  if (__builtin_expect(this != &_S_empty_rep(), false))
  4066ef:	48 39 df             	cmp    %rbx,%rdi
  4066f2:	0f 85 18 02 00 00    	jne    406910 <_ZN6rocket6Config4loadEPKc+0x2060>

      _Rb_tree(_Rb_tree&& __x, _Node_allocator&& __a);
#endif

      ~_Rb_tree() _GLIBCXX_NOEXCEPT
      { _M_erase(_M_begin()); }
  4066f8:	48 8b b4 24 d0 03 00 	mov    0x3d0(%rsp),%rsi
  4066ff:	00 
  406700:	48 8b 7c 24 08       	mov    0x8(%rsp),%rdi
  406705:	e8 c6 1c 00 00       	callq  4083d0 <_ZNSt8_Rb_treeISsSt4pairIKSsSsESt10_Select1stIS2_ESt4lessISsESaIS2_EE8_M_eraseEPSt13_Rb_tree_nodeIS2_E>

    return true;
}
  40670a:	0f b6 44 24 4f       	movzbl 0x4f(%rsp),%eax
  40670f:	48 81 c4 68 05 00 00 	add    $0x568,%rsp
  406716:	5b                   	pop    %rbx
  406717:	5d                   	pop    %rbp
  406718:	41 5c                	pop    %r12
  40671a:	41 5d                	pop    %r13
  40671c:	41 5e                	pop    %r14
  40671e:	41 5f                	pop    %r15
  406720:	c3                   	retq   
  406721:	0f 1f 80 00 00 00 00 	nopl   0x0(%rax)
      {
	const difference_type __d = difference_type(__n1 - __n2);

	if (__d > __gnu_cxx::__numeric_traits<int>::__max)
	  return __gnu_cxx::__numeric_traits<int>::__max;
	else if (__d < __gnu_cxx::__numeric_traits<int>::__min)
  406728:	49 81 ff 00 00 00 80 	cmp    $0xffffffff80000000,%r15
  40672f:	7c 0b                	jl     40673c <_ZN6rocket6Config4loadEPKc+0x1e8c>
	  return __gnu_cxx::__numeric_traits<int>::__min;
	else
	  return int(__d);
  406731:	44 89 f8             	mov    %r15d,%eax
  406734:	85 c0                	test   %eax,%eax
  406736:	0f 89 57 fb ff ff    	jns    406293 <_ZN6rocket6Config4loadEPKc+0x19e3>
    {
      constexpr _Head_base()
      : _M_head_impl() { }

      constexpr _Head_base(const _Head& __h)
      : _M_head_impl(__h) { }
  40673c:	48 8b 44 24 38       	mov    0x38(%rsp),%rax
#if __cplusplus >= 201103L
	  __i = _M_t._M_emplace_hint_unique(__i, std::piecewise_construct,
  406741:	48 8d ac 24 f0 03 00 	lea    0x3f0(%rsp),%rbp
  406748:	00 
  406749:	48 8b 7c 24 08       	mov    0x8(%rsp),%rdi
  40674e:	4c 8d 44 24 7f       	lea    0x7f(%rsp),%r8
  406753:	48 8d 15 c2 9c 00 00 	lea    0x9cc2(%rip),%rdx        # 41041c <_ZStL19piecewise_construct>
  40675a:	4c 89 f6             	mov    %r14,%rsi
  40675d:	48 89 e9             	mov    %rbp,%rcx
  406760:	48 89 84 24 f0 03 00 	mov    %rax,0x3f0(%rsp)
  406767:	00 
  406768:	e8 43 23 00 00       	callq  408ab0 <_ZNSt8_Rb_treeISsSt4pairIKSsSsESt10_Select1stIS2_ESt4lessISsESaIS2_EE22_M_emplace_hint_uniqueIIRKSt21piecewise_construct_tSt5tupleIIRS1_EESD_IIEEEEESt17_Rb_tree_iteratorIS2_ESt23_Rb_tree_const_iteratorIS2_EDpOT_>
  40676d:	49 89 c6             	mov    %rax,%r14
  406770:	e9 26 fb ff ff       	jmpq   40629b <_ZN6rocket6Config4loadEPKc+0x19eb>
  406775:	0f 1f 00             	nopl   (%rax)
      {
	const difference_type __d = difference_type(__n1 - __n2);

	if (__d > __gnu_cxx::__numeric_traits<int>::__max)
	  return __gnu_cxx::__numeric_traits<int>::__max;
	else if (__d < __gnu_cxx::__numeric_traits<int>::__min)
  406778:	49 81 ff 00 00 00 80 	cmp    $0xffffffff80000000,%r15
  40677f:	7c 0b                	jl     40678c <_ZN6rocket6Config4loadEPKc+0x1edc>
	  return __gnu_cxx::__numeric_traits<int>::__min;
	else
	  return int(__d);
  406781:	44 89 f8             	mov    %r15d,%eax
	// concept requirements
	__glibcxx_function_requires(_DefaultConstructibleConcept<mapped_type>)

	iterator __i = lower_bound(__k);
	// __i->first is greater than or equivalent to __k.
	if (__i == end() || key_comp()(__k, (*__i).first))
  406784:	85 c0                	test   %eax,%eax
  406786:	0f 89 ff f6 ff ff    	jns    405e8b <_ZN6rocket6Config4loadEPKc+0x15db>
  40678c:	48 8b 44 24 50       	mov    0x50(%rsp),%rax
#if __cplusplus >= 201103L
	  __i = _M_t._M_emplace_hint_unique(__i, std::piecewise_construct,
  406791:	48 8b 4c 24 30       	mov    0x30(%rsp),%rcx
  406796:	4c 8d 44 24 7e       	lea    0x7e(%rsp),%r8
  40679b:	48 8b 7c 24 08       	mov    0x8(%rsp),%rdi
  4067a0:	48 8d 15 75 9c 00 00 	lea    0x9c75(%rip),%rdx        # 41041c <_ZStL19piecewise_construct>
  4067a7:	4c 89 f6             	mov    %r14,%rsi
  4067aa:	48 89 84 24 90 03 00 	mov    %rax,0x390(%rsp)
  4067b1:	00 
  4067b2:	e8 f9 22 00 00       	callq  408ab0 <_ZNSt8_Rb_treeISsSt4pairIKSsSsESt10_Select1stIS2_ESt4lessISsESaIS2_EE22_M_emplace_hint_uniqueIIRKSt21piecewise_construct_tSt5tupleIIRS1_EESD_IIEEEEESt17_Rb_tree_iteratorIS2_ESt23_Rb_tree_const_iteratorIS2_EDpOT_>
  4067b7:	49 89 c6             	mov    %rax,%r14
  4067ba:	e9 cc f6 ff ff       	jmpq   405e8b <_ZN6rocket6Config4loadEPKc+0x15db>
  4067bf:	90                   	nop
      {
	const difference_type __d = difference_type(__n1 - __n2);

	if (__d > __gnu_cxx::__numeric_traits<int>::__max)
	  return __gnu_cxx::__numeric_traits<int>::__max;
	else if (__d < __gnu_cxx::__numeric_traits<int>::__min)
  4067c0:	48 81 f9 00 00 00 80 	cmp    $0xffffffff80000000,%rcx
  4067c7:	7c 0a                	jl     4067d3 <_ZN6rocket6Config4loadEPKc+0x1f23>
	  return __gnu_cxx::__numeric_traits<int>::__min;
	else
	  return int(__d);
  4067c9:	89 c8                	mov    %ecx,%eax
	// concept requirements
	__glibcxx_function_requires(_DefaultConstructibleConcept<mapped_type>)

	iterator __i = lower_bound(__k);
	// __i->first is greater than or equivalent to __k.
	if (__i == end() || key_comp()(__k, (*__i).first))
  4067cb:	85 c0                	test   %eax,%eax
  4067cd:	0f 89 a3 f2 ff ff    	jns    405a76 <_ZN6rocket6Config4loadEPKc+0x11c6>
  4067d3:	48 8b 44 24 20       	mov    0x20(%rsp),%rax
#if __cplusplus >= 201103L
	  __i = _M_t._M_emplace_hint_unique(__i, std::piecewise_construct,
  4067d8:	48 8b 7c 24 08       	mov    0x8(%rsp),%rdi
  4067dd:	48 8d 8c 24 60 03 00 	lea    0x360(%rsp),%rcx
  4067e4:	00 
  4067e5:	4c 8d 44 24 7d       	lea    0x7d(%rsp),%r8
  4067ea:	48 8d 15 2b 9c 00 00 	lea    0x9c2b(%rip),%rdx        # 41041c <_ZStL19piecewise_construct>
  4067f1:	4c 89 f6             	mov    %r14,%rsi
  4067f4:	48 89 84 24 60 03 00 	mov    %rax,0x360(%rsp)
  4067fb:	00 
  4067fc:	e8 af 22 00 00       	callq  408ab0 <_ZNSt8_Rb_treeISsSt4pairIKSsSsESt10_Select1stIS2_ESt4lessISsESaIS2_EE22_M_emplace_hint_uniqueIIRKSt21piecewise_construct_tSt5tupleIIRS1_EESD_IIEEEEESt17_Rb_tree_iteratorIS2_ESt23_Rb_tree_const_iteratorIS2_EDpOT_>
  406801:	49 89 c6             	mov    %rax,%r14
  406804:	e9 6d f2 ff ff       	jmpq   405a76 <_ZN6rocket6Config4loadEPKc+0x11c6>
  406809:	0f 1f 80 00 00 00 00 	nopl   0x0(%rax)
      {
	const difference_type __d = difference_type(__n1 - __n2);

	if (__d > __gnu_cxx::__numeric_traits<int>::__max)
	  return __gnu_cxx::__numeric_traits<int>::__max;
	else if (__d < __gnu_cxx::__numeric_traits<int>::__min)
  406810:	48 81 f9 00 00 00 80 	cmp    $0xffffffff80000000,%rcx
  406817:	7c 0a                	jl     406823 <_ZN6rocket6Config4loadEPKc+0x1f73>
	  return __gnu_cxx::__numeric_traits<int>::__min;
	else
	  return int(__d);
  406819:	89 c8                	mov    %ecx,%eax
	// concept requirements
	__glibcxx_function_requires(_DefaultConstructibleConcept<mapped_type>)

	iterator __i = lower_bound(__k);
	// __i->first is greater than or equivalent to __k.
	if (__i == end() || key_comp()(__k, (*__i).first))
  40681b:	85 c0                	test   %eax,%eax
  40681d:	0f 89 33 ee ff ff    	jns    405656 <_ZN6rocket6Config4loadEPKc+0xda6>
  406823:	48 8b 44 24 20       	mov    0x20(%rsp),%rax
#if __cplusplus >= 201103L
	  __i = _M_t._M_emplace_hint_unique(__i, std::piecewise_construct,
  406828:	48 8b 7c 24 08       	mov    0x8(%rsp),%rdi
  40682d:	48 8d 8c 24 30 03 00 	lea    0x330(%rsp),%rcx
  406834:	00 
  406835:	4c 8d 44 24 7c       	lea    0x7c(%rsp),%r8
  40683a:	48 8d 15 db 9b 00 00 	lea    0x9bdb(%rip),%rdx        # 41041c <_ZStL19piecewise_construct>
  406841:	4c 89 f6             	mov    %r14,%rsi
  406844:	48 89 84 24 30 03 00 	mov    %rax,0x330(%rsp)
  40684b:	00 
  40684c:	e8 5f 22 00 00       	callq  408ab0 <_ZNSt8_Rb_treeISsSt4pairIKSsSsESt10_Select1stIS2_ESt4lessISsESaIS2_EE22_M_emplace_hint_uniqueIIRKSt21piecewise_construct_tSt5tupleIIRS1_EESD_IIEEEEESt17_Rb_tree_iteratorIS2_ESt23_Rb_tree_const_iteratorIS2_EDpOT_>
  406851:	49 89 c6             	mov    %rax,%r14
  406854:	e9 fd ed ff ff       	jmpq   405656 <_ZN6rocket6Config4loadEPKc+0xda6>
  406859:	0f 1f 80 00 00 00 00 	nopl   0x0(%rax)
      {
	const difference_type __d = difference_type(__n1 - __n2);

	if (__d > __gnu_cxx::__numeric_traits<int>::__max)
	  return __gnu_cxx::__numeric_traits<int>::__max;
	else if (__d < __gnu_cxx::__numeric_traits<int>::__min)
  406860:	48 81 f9 00 00 00 80 	cmp    $0xffffffff80000000,%rcx
  406867:	7c 0a                	jl     406873 <_ZN6rocket6Config4loadEPKc+0x1fc3>
	  return __gnu_cxx::__numeric_traits<int>::__min;
	else
	  return int(__d);
  406869:	89 c8                	mov    %ecx,%eax
	// concept requirements
	__glibcxx_function_requires(_DefaultConstructibleConcept<mapped_type>)

	iterator __i = lower_bound(__k);
	// __i->first is greater than or equivalent to __k.
	if (__i == end() || key_comp()(__k, (*__i).first))
  40686b:	85 c0                	test   %eax,%eax
  40686d:	0f 89 03 e9 ff ff    	jns    405176 <_ZN6rocket6Config4loadEPKc+0x8c6>
  406873:	48 8b 44 24 20       	mov    0x20(%rsp),%rax
#if __cplusplus >= 201103L
	  __i = _M_t._M_emplace_hint_unique(__i, std::piecewise_construct,
  406878:	48 8b 7c 24 08       	mov    0x8(%rsp),%rdi
  40687d:	48 8d 8c 24 00 03 00 	lea    0x300(%rsp),%rcx
  406884:	00 
  406885:	4c 8d 44 24 7b       	lea    0x7b(%rsp),%r8
  40688a:	48 8d 15 8b 9b 00 00 	lea    0x9b8b(%rip),%rdx        # 41041c <_ZStL19piecewise_construct>
  406891:	4c 89 f6             	mov    %r14,%rsi
  406894:	48 89 84 24 00 03 00 	mov    %rax,0x300(%rsp)
  40689b:	00 
  40689c:	e8 0f 22 00 00       	callq  408ab0 <_ZNSt8_Rb_treeISsSt4pairIKSsSsESt10_Select1stIS2_ESt4lessISsESaIS2_EE22_M_emplace_hint_uniqueIIRKSt21piecewise_construct_tSt5tupleIIRS1_EESD_IIEEEEESt17_Rb_tree_iteratorIS2_ESt23_Rb_tree_const_iteratorIS2_EDpOT_>
  4068a1:	49 89 c6             	mov    %rax,%r14
  4068a4:	e9 cd e8 ff ff       	jmpq   405176 <_ZN6rocket6Config4loadEPKc+0x8c6>
  4068a9:	0f 1f 80 00 00 00 00 	nopl   0x0(%rax)
      {
	const difference_type __d = difference_type(__n1 - __n2);

	if (__d > __gnu_cxx::__numeric_traits<int>::__max)
	  return __gnu_cxx::__numeric_traits<int>::__max;
	else if (__d < __gnu_cxx::__numeric_traits<int>::__min)
  4068b0:	48 81 f9 00 00 00 80 	cmp    $0xffffffff80000000,%rcx
  4068b7:	7c 0a                	jl     4068c3 <_ZN6rocket6Config4loadEPKc+0x2013>
	  return __gnu_cxx::__numeric_traits<int>::__min;
	else
	  return int(__d);
  4068b9:	89 c8                	mov    %ecx,%eax
	// concept requirements
	__glibcxx_function_requires(_DefaultConstructibleConcept<mapped_type>)

	iterator __i = lower_bound(__k);
	// __i->first is greater than or equivalent to __k.
	if (__i == end() || key_comp()(__k, (*__i).first))
  4068bb:	85 c0                	test   %eax,%eax
  4068bd:	0f 89 a3 e4 ff ff    	jns    404d66 <_ZN6rocket6Config4loadEPKc+0x4b6>
  4068c3:	48 8b 44 24 20       	mov    0x20(%rsp),%rax
#if __cplusplus >= 201103L
	  __i = _M_t._M_emplace_hint_unique(__i, std::piecewise_construct,
  4068c8:	48 8b 7c 24 08       	mov    0x8(%rsp),%rdi
  4068cd:	48 8d 8c 24 d0 02 00 	lea    0x2d0(%rsp),%rcx
  4068d4:	00 
  4068d5:	4c 8d 44 24 7a       	lea    0x7a(%rsp),%r8
  4068da:	48 8d 15 3b 9b 00 00 	lea    0x9b3b(%rip),%rdx        # 41041c <_ZStL19piecewise_construct>
  4068e1:	4c 89 f6             	mov    %r14,%rsi
  4068e4:	48 89 84 24 d0 02 00 	mov    %rax,0x2d0(%rsp)
  4068eb:	00 
  4068ec:	e8 bf 21 00 00       	callq  408ab0 <_ZNSt8_Rb_treeISsSt4pairIKSsSsESt10_Select1stIS2_ESt4lessISsESaIS2_EE22_M_emplace_hint_uniqueIIRKSt21piecewise_construct_tSt5tupleIIRS1_EESD_IIEEEEESt17_Rb_tree_iteratorIS2_ESt23_Rb_tree_const_iteratorIS2_EDpOT_>
  4068f1:	49 89 c6             	mov    %rax,%r14
  4068f4:	e9 6d e4 ff ff       	jmpq   404d66 <_ZN6rocket6Config4loadEPKc+0x4b6>
  4068f9:	0f 1f 80 00 00 00 00 	nopl   0x0(%rax)
        }

        return default_value;
  406900:	41 be 00 00 40 06    	mov    $0x6400000,%r14d
  406906:	e9 a9 e6 ff ff       	jmpq   404fb4 <_ZN6rocket6Config4loadEPKc+0x704>
  40690b:	0f 1f 44 00 00       	nopl   0x0(%rax,%rax,1)
  static inline _Atomic_word
  __attribute__ ((__unused__))
  __exchange_and_add_dispatch(_Atomic_word* __mem, int __val)
